Warning[w6]: Type conflict for external/entry "dSoundFreq", in module c_ui against external/entry in module d_sound; prototyped function vs K&R function
  /* In module c_ui: */
  /* K&R Function, args 0, attr 0 */
  int (__atpcs __interwork dSoundFreq)();
  /* In module d_sound: */
  /* Function, args 3, attr 0 */
  void (__atpcs __interwork dSoundFreq)(UWORD,
                                        UWORD,
                                        UBYTE);
    typedef unsigned short UWORD;
    typedef unsigned char UBYTE;
################################################################################
#                                                                              #
#      IAR Universal Linker V4.61A/386                                         #
#                                                                              #
#           Link time     =  08/Oct/2012  15:53:08                             #
#           Target CPU    =  ARM                                               #
#           List file     =  "C:\Documents and Settings\Lane Kolbly\My Documen #
#                            ts\GitHub\blindnxt\AT91SAM7S256\SAM7S256\Object\L #
#                            MS_ARM.map"                                       #
#           Output file 1 =  "C:\Documents and Settings\Lane Kolbly\My Documen #
#                            ts\GitHub\blindnxt\AT91SAM7S256\SAM7S256\Object\L #
#                            MS_ARM.rfw"                                       #
#                            Format: raw-binary                                #
#           Command line  =  "C:\Documents and Settings\Lane Kolbly\My Documen #
#                            ts\GitHub\blindnxt\AT91SAM7S256\SAM7S256\Object\C #
#                            startup.r79"                                      #
#                            "C:\Documents and Settings\Lane Kolbly\My Documen #
#                            ts\GitHub\blindnxt\AT91SAM7S256\SAM7S256\Object\C #
#                            startup_SAM7.r79"                                 #
#                            "C:\Documents and Settings\Lane Kolbly\My Documen #
#                            ts\GitHub\blindnxt\AT91SAM7S256\SAM7S256\Object\c #
#                            _button.r79"                                      #
#                            "C:\Documents and Settings\Lane Kolbly\My Documen #
#                            ts\GitHub\blindnxt\AT91SAM7S256\SAM7S256\Object\c #
#                            _cmd.r79"                                         #
#                            "C:\Documents and Settings\Lane Kolbly\My Documen #
#                            ts\GitHub\blindnxt\AT91SAM7S256\SAM7S256\Object\c #
#                            _comm.r79"                                        #
#                            "C:\Documents and Settings\Lane Kolbly\My Documen #
#                            ts\GitHub\blindnxt\AT91SAM7S256\SAM7S256\Object\c #
#                            _display.r79"                                     #
#                            "C:\Documents and Settings\Lane Kolbly\My Documen #
#                            ts\GitHub\blindnxt\AT91SAM7S256\SAM7S256\Object\c #
#                            _input.r79"                                       #
#                            "C:\Documents and Settings\Lane Kolbly\My Documen #
#                            ts\GitHub\blindnxt\AT91SAM7S256\SAM7S256\Object\c #
#                            _ioctrl.r79"                                      #
#                            "C:\Documents and Settings\Lane Kolbly\My Documen #
#                            ts\GitHub\blindnxt\AT91SAM7S256\SAM7S256\Object\c #
#                            _loader.r79"                                      #
#                            "C:\Documents and Settings\Lane Kolbly\My Documen #
#                            ts\GitHub\blindnxt\AT91SAM7S256\SAM7S256\Object\c #
#                            _lowspeed.r79"                                    #
#                            "C:\Documents and Settings\Lane Kolbly\My Documen #
#                            ts\GitHub\blindnxt\AT91SAM7S256\SAM7S256\Object\c #
#                            _output.r79"                                      #
#                            "C:\Documents and Settings\Lane Kolbly\My Documen #
#                            ts\GitHub\blindnxt\AT91SAM7S256\SAM7S256\Object\c #
#                            _sound.r79"                                       #
#                            "C:\Documents and Settings\Lane Kolbly\My Documen #
#                            ts\GitHub\blindnxt\AT91SAM7S256\SAM7S256\Object\c #
#                            _ui.r79"                                          #
#                            "C:\Documents and Settings\Lane Kolbly\My Documen #
#                            ts\GitHub\blindnxt\AT91SAM7S256\SAM7S256\Object\d #
#                            _bt.r79"                                          #
#                            "C:\Documents and Settings\Lane Kolbly\My Documen #
#                            ts\GitHub\blindnxt\AT91SAM7S256\SAM7S256\Object\d #
#                            _button.r79"                                      #
#                            "C:\Documents and Settings\Lane Kolbly\My Documen #
#                            ts\GitHub\blindnxt\AT91SAM7S256\SAM7S256\Object\d #
#                            _display.r79"                                     #
#                            "C:\Documents and Settings\Lane Kolbly\My Documen #
#                            ts\GitHub\blindnxt\AT91SAM7S256\SAM7S256\Object\d #
#                            _hispeed.r79"                                     #
#                            "C:\Documents and Settings\Lane Kolbly\My Documen #
#                            ts\GitHub\blindnxt\AT91SAM7S256\SAM7S256\Object\d #
#                            _input.r79"                                       #
#                            "C:\Documents and Settings\Lane Kolbly\My Documen #
#                            ts\GitHub\blindnxt\AT91SAM7S256\SAM7S256\Object\d #
#                            _ioctrl.r79"                                      #
#                            "C:\Documents and Settings\Lane Kolbly\My Documen #
#                            ts\GitHub\blindnxt\AT91SAM7S256\SAM7S256\Object\d #
#                            _loader.r79"                                      #
#                            "C:\Documents and Settings\Lane Kolbly\My Documen #
#                            ts\GitHub\blindnxt\AT91SAM7S256\SAM7S256\Object\d #
#                            _lowspeed.r79"                                    #
#                            "C:\Documents and Settings\Lane Kolbly\My Documen #
#                            ts\GitHub\blindnxt\AT91SAM7S256\SAM7S256\Object\d #
#                            _output.r79"                                      #
#                            "C:\Documents and Settings\Lane Kolbly\My Documen #
#                            ts\GitHub\blindnxt\AT91SAM7S256\SAM7S256\Object\d #
#                            _sound.r79"                                       #
#                            "C:\Documents and Settings\Lane Kolbly\My Documen #
#                            ts\GitHub\blindnxt\AT91SAM7S256\SAM7S256\Object\d #
#                            _timer.r79"                                       #
#                            "C:\Documents and Settings\Lane Kolbly\My Documen #
#                            ts\GitHub\blindnxt\AT91SAM7S256\SAM7S256\Object\d #
#                            _usb.r79"                                         #
#                            "C:\Documents and Settings\Lane Kolbly\My Documen #
#                            ts\GitHub\blindnxt\AT91SAM7S256\SAM7S256\Object\m #
#                            _sched.r79"                                       #
#                            -o                                                #
#                            "C:\Documents and Settings\Lane Kolbly\My Documen #
#                            ts\GitHub\blindnxt\AT91SAM7S256\SAM7S256\Object\L #
#                            MS_ARM.rfw"                                       #
#                            -Fraw-binary -l                                   #
#                            "C:\Documents and Settings\Lane Kolbly\My Documen #
#                            ts\GitHub\blindnxt\AT91SAM7S256\SAM7S256\Object\L #
#                            MS_ARM.map"                                       #
#                            -xms -f                                           #
#                            "C:\Documents and Settings\Lane Kolbly\My Documen #
#                            ts\GitHub\blindnxt\AT91SAM7S256\SAM7S256\Tools\at #
#                            91SAM7S256_Remap.xcl"                             #
#                            (-carm -Z(CONST)INTRAMSTART=00200000              #
#                            -Z(CONST)INTRAMEND_BEFORE_REMAP=00210000          #
#                            -Z(CONST)INTRAMEND_REMAP=00010000                 #
#                            -DROMSTART=00100000 -DROMEND=0013FFFF             #
#                            -DRAMSTART=00000100 -DRAMEND=0000FFFF             #
#                            -Z(CODE)INTVEC=00-3F                              #
#                            -Z(CODE)ICODE,DIFUNCT=ROMSTART-ROMEND             #
#                            -Z(CODE)SWITAB=ROMSTART-ROMEND                    #
#                            -Z(CODE)CODE=ROMSTART-ROMEND                      #
#                            -Z(CONST)INITTAB,DATA_ID,DATA_C=ROMSTART-ROMEND   #
#                            -Z(CONST)CHECKSUM=ROMSTART-ROMEND                 #
#                            -Z(DATA)DATA_I,DATA_Z,DATA_N=RAMSTART-RAMEND      #
#                            -Z(DATA)CODE_I=RAMSTART-RAMEND                    #
#                            -Z(CONST)CODE_ID=ROMSTART-ROMEND                  #
#                            -QCODE_I=CODE_ID -D_CSTACK_SIZE=(100*4)           #
#                            -D_IRQ_STACK_SIZE=(3*8*4)                         #
#                            -Z(DATA)CSTACK+_CSTACK_SIZE=RAMSTART-RAMEND       #
#                            -Z(DATA)IRQ_STACK+_IRQ_STACK_SIZE=RAMSTART-RAMEND) #
#                            "C:\Documents and Settings\Lane Kolbly\My Documen #
#                            ts\GitHub\blindnxt\AT91SAM7S256\SAM7S256\Tools\.. #
#                            \Lib\dl4tptinl8n.r79"                             #
#                                                                              #
#                        Copyright 1987-2007 IAR Systems. All rights reserved. #
################################################################################





                ****************************************
                *                                      *
                *           CROSS REFERENCE            *
                *                                      *
                ****************************************

                  There are no program entries.




                ****************************************
                *                                      *
                *            RUNTIME MODEL             *
                *                                      *
                ****************************************

  ARMv4M                     = USED
  ARMv4T                     = USED
  StackAlign4                = USED
  StackAlign8                = USED
  __cpu_mode                 = __pcs__interwork
  __data_model               = absolute
  __dlib_file_descriptor     = 0
  __dlib_full_locale_support = 0
  __endian                   = little
  __rt_version               = 6



                ****************************************
                *                                      *
                *              MODULE MAP              *
                *                                      *
                ****************************************


  DEFINED ABSOLUTE ENTRIES
    *************************************************************************

  DEFINED ABSOLUTE ENTRIES
  PROGRAM MODULE, NAME : ?ABS_ENTRY_MOD

Absolute parts
           ENTRY                   ADDRESS         REF BY
           =====                   =======         ======
           _IRQ_STACK_SIZE         00000060 
           _CSTACK_SIZE            00000400 
           RAMEND                  0000FFFF 
           RAMSTART                00000100 
           ROMEND                  0013FFFF 
           ROMSTART                00100000 
    *************************************************************************

  FILE NAME : C:\Documents and Settings\Lane Kolbly\My Documents\GitHub\blindnxt\AT91SAM7S256\SAM7S256\Object\Cstartup.r79
  PROGRAM MODULE, NAME : ?RESET

  SEGMENTS IN THE MODULE
  ======================
ICODE
  Relative segment, address: 00100000 - 001000A3 (0xa4 bytes), align: 2
  Segment part 0. ROOT.
           ENTRY                   ADDRESS         REF BY
           =====                   =======         ======
           reset                   00100000        Segment part 3 (?RESET_init)
           AT91F_Default_FIQ_handler
                                   00100094        AT91F_LowLevelInit (Cstartup_SAM7)
           AT91F_Default_IRQ_handler
                                   00100098        AT91F_LowLevelInit (Cstartup_SAM7)
           AT91F_Spurious_handler
                                   0010009C        AT91F_LowLevelInit (Cstartup_SAM7)
           LOCAL                   ADDRESS         
           =====                   =======         
           undefvec                00100004 
           swivec                  00100008 
           pabtvec                 0010000C 
           dabtvec                 00100010 
           rsvdvec                 00100014 
           irqvec                  00100018 
           IRQ_Handler_Entry       00100044 
           fiqvec                  0010001C 
           FIQ_Handler_Entry       0010001C 
           _?0                     001000A0 

    -------------------------------------------------------------------------
  PROGRAM MODULE, NAME : ?RESET_init

  SEGMENTS IN THE MODULE
  ======================
INTRAMEND_REMAP
  Relative segment, address: 00010000, align: 2
  Segment part 0. ROOT.
    -------------------------------------------------------------------------
INTRAMSTART
  Relative segment, address: 00200000, align: 2
  Segment part 1. ROOT.
    -------------------------------------------------------------------------
INTRAMEND_BEFORE_REMAP
  Relative segment, address: 00210000, align: 2
  Segment part 2. ROOT.
    -------------------------------------------------------------------------
ICODE
  Relative segment, address: 001000A4 - 0010015B (0xb8 bytes), align: 2
  Segment part 3. ROOT.
           ENTRY                   ADDRESS         REF BY
           =====                   =======         ======
           InitReset               001000A4        Segment part 0 (?RESET)
           __main                  00100130 
           LOCAL                   ADDRESS         
           =====                   =======         
           add_pc                  001000C0 
           add_pc_1                001000C4 
           copy                    001000D4 
           PtInitRemap             00100118 
           InitRemap               0010011C 
           ?jump_to_main           00100128 
           ?call_exit              00100134 
           End                     00100134 
           _?0                     00100138 
           _?1                     0010013C 
           _?2                     00100140 
           _?3                     00100144 
           _?4                     00100148 
           _?5                     0010014C 
           _?6                     00100150 
           _?7                     00100154 
           _?8                     00100158 

    *************************************************************************

  FILE NAME : C:\Documents and Settings\Lane Kolbly\My Documents\GitHub\blindnxt\AT91SAM7S256\SAM7S256\Object\Cstartup_SAM7.r79
  PROGRAM MODULE, NAME : Cstartup_SAM7

  SEGMENTS IN THE MODULE
  ======================
ICODE
  Relative segment, address: 0010015C - 00100203 (0xa8 bytes), align: 2
  Segment part 2.
           ENTRY                   ADDRESS         REF BY
           =====                   =======         ======
           AT91F_LowLevelInit      0010015D        Segment part 3 (?RESET_init)
               stack 1 = 00000000 ( 00000008 )

    *************************************************************************

  FILE NAME : C:\Documents and Settings\Lane Kolbly\My Documents\GitHub\blindnxt\AT91SAM7S256\SAM7S256\Object\c_button.r79
  PROGRAM MODULE, NAME : c_button

  SEGMENTS IN THE MODULE
  ======================
DATA_Z
  Relative segment, address: 000007D4 - 000007F7 (0x24 bytes), align: 2
  Segment part 2.             Intra module refs:   Segment part 10
                                                   cButton
           LOCAL                   ADDRESS         
           =====                   =======         
           IOMapButton             000007D4 
    -------------------------------------------------------------------------
DATA_Z
  Relative segment, address: 000007F8 - 00000804 (0xd bytes), align: 2
  Segment part 3.             Intra module refs:   Segment part 9
                                                   cButton
                                                   cButtonCtrl
           LOCAL                   ADDRESS         
           =====                   =======         
           BtnCnt                  00000804 
           VarsButton              000007F8 
    -------------------------------------------------------------------------
DATA_C
  Relative segment, address: 00119F80 - 00119FB3 (0x34 bytes), align: 2
  Segment part 4.
           ENTRY                   ADDRESS         REF BY
           =====                   =======         ======
           cButton                 00119F80        Segment part 5 (m_sched)
    -------------------------------------------------------------------------
CODE
  Relative segment, address: 00100258 - 00100293 (0x3c bytes), align: 2
  Segment part 6.             Intra module refs:   cButton
           ENTRY                   ADDRESS         REF BY
           =====                   =======         ======
           cButtonInit             00100259 
               stack 1 = 00000000 ( 0000000C )
    -------------------------------------------------------------------------
CODE
  Relative segment, address: 00100294 - 00100397 (0x104 bytes), align: 2
  Segment part 8.             Intra module refs:   cButton
           ENTRY                   ADDRESS         REF BY
           =====                   =======         ======
           cButtonCtrl             00100295 
               stack 1 = 00000000 ( 00000018 )
    -------------------------------------------------------------------------
CODE
  Relative segment, address: 00100398 - 0010039B (0x4 bytes), align: 2
  Segment part 9.             Intra module refs:   cButtonCtrl
                                                   cButtonInit
    -------------------------------------------------------------------------
CODE
  Relative segment, address: 0010039C - 0010039F (0x4 bytes), align: 2
  Segment part 10.            Intra module refs:   cButtonCtrl
                                                   cButtonInit
    -------------------------------------------------------------------------
CODE
  Relative segment, address: 001003A0 - 001003A9 (0xa bytes), align: 2
  Segment part 12.            Intra module refs:   cButton
           ENTRY                   ADDRESS         REF BY
           =====                   =======         ======
           cButtonExit             001003A1 
               stack 1 = 00000000 ( 00000004 )
    -------------------------------------------------------------------------
INITTAB
  Relative segment, address: 00119888 - 00119893 (0xc bytes), align: 2
  Segment part 16. ROOT.
           ENTRY                   ADDRESS         REF BY
           =====                   =======         ======
           ?init?tab?DATA_Z        00119888 

    *************************************************************************

  FILE NAME : C:\Documents and Settings\Lane Kolbly\My Documents\GitHub\blindnxt\AT91SAM7S256\SAM7S256\Object\c_cmd.r79
  PROGRAM MODULE, NAME : c_cmd

  SEGMENTS IN THE MODULE
  ======================
DATA_Z
  Relative segment, address: 00000808 - 00008B43 (0x833c bytes), align: 2
  Segment part 12.            Intra module refs:   ?Subroutine176
                                                   Segment part 108
                                                   Segment part 109
                                                   Segment part 112
                                                   Segment part 116
                                                   Segment part 122
                                                   Segment part 135
                                                   Segment part 149
                                                   Segment part 159
                                                   Segment part 166
                                                   Segment part 172
                                                   Segment part 177
                                                   Segment part 186
                                                   Segment part 187
                                                   Segment part 188
                                                   Segment part 192
                                                   Segment part 195
                                                   Segment part 200
                                                   Segment part 204
                                                   Segment part 205
                                                   Segment part 206
                                                   Segment part 209
                                                   Segment part 226
                                                   Segment part 227
                                                   Segment part 228
                                                   Segment part 235
                                                   Segment part 280
                                                   Segment part 283
                                                   Segment part 293
                                                   Segment part 303
                                                   Segment part 306
                                                   Segment part 318
                                                   Segment part 327
                                                   Segment part 332
                                                   Segment part 340
                                                   Segment part 351
                                                   Segment part 354
                                                   Segment part 369
                                                   Segment part 384
                                                   Segment part 414
                                                   Segment part 445
                                                   Segment part 453
                                                   Segment part 458
                                                   Segment part 475
                                                   Segment part 482
                                                   Segment part 511
                                                   Segment part 520
                                                   Segment part 81
                                                   Segment part 87
                                                   Segment part 95
                                                   Segment part 98
                                                   cCmd
                                                   cCmdActivateProgram
                                                   cCmdAllocDopeVector
                                                   cCmdHandleRemoteCommands
                                                   cCmdInit
                                                   cCmdInterpOther
                                                   cCmdInterpPolyBinop
                                                   cCmdInterpUnop2
                                                   cCmdIsClumpIDSane
                                                   cCmdWrapGetStartTick
           LOCAL                   ADDRESS         
           =====                   =======         
           IOMapCmd                00000808 
           VarsCmd                 00008844 
    -------------------------------------------------------------------------
DATA_C
  Relative segment, address: 00119FB4 - 00119FBB (0x8 bytes), align: 2
  Segment part 2.             Intra module refs:   cCmdLoadCalibrationFiles
    -------------------------------------------------------------------------
DATA_C
  Relative segment, address: 00119FBC - 00119FCB (0x10 bytes), align: 2
  Segment part 3.             Intra module refs:   Segment part 107
                                                   Segment part 94
    -------------------------------------------------------------------------
DATA_C
  Relative segment, address: 00119FCC - 00119FD3 (0x8 bytes), align: 2
  Segment part 4.             Intra module refs:   cCmdCopyBitMapBits
    -------------------------------------------------------------------------
DATA_C
  Relative segment, address: 00119FD4 - 00119FDB (0x8 bytes), align: 2
  Segment part 6.             Intra module refs:   cCmdInterpUnop2
    -------------------------------------------------------------------------
DATA_C
  Relative segment, address: 00119FDC - 00119FE3 (0x8 bytes), align: 2
  Segment part 9.             Intra module refs:   cCmdInterpUnop2
    -------------------------------------------------------------------------
DATA_C
  Relative segment, address: 00119FE4 - 00119FEB (0x8 bytes), align: 2
  Segment part 10.            Intra module refs:   cCmdInterpUnop2
    -------------------------------------------------------------------------
DATA_C
  Relative segment, address: 00119FEC - 00119FF3 (0x8 bytes), align: 2
  Segment part 11.            Intra module refs:   cCmdInterpUnop2
    -------------------------------------------------------------------------
DATA_C
  Relative segment, address: 00119FF4 - 0011A027 (0x34 bytes), align: 2
  Segment part 17.
           ENTRY                   ADDRESS         REF BY
           =====                   =======         ======
           cCmd                    00119FF4        Segment part 5 (m_sched)
    -------------------------------------------------------------------------
CODE
  Relative segment, address: 001003AC - 001003F5 (0x4a bytes), align: 2
  Segment part 40.            Intra module refs:   Segment part 24
           ENTRY                   ADDRESS         REF BY
           =====                   =======         ======
           cCmdWrapDrawText        001003AD 
               stack 1 = 00000000 ( 0000000C )
    -------------------------------------------------------------------------
CODE
  Relative segment, address: 001003F8 - 0010042F (0x38 bytes), align: 2
  Segment part 42.            Intra module refs:   Segment part 24
           ENTRY                   ADDRESS         REF BY
           =====                   =======         ======
           cCmdWrapDrawPoint       001003F9 
               stack 1 = 00000000 ( 0000000C )
    -------------------------------------------------------------------------
CODE
  Relative segment, address: 00100430 - 0010046F (0x40 bytes), align: 2
  Segment part 44.            Intra module refs:   Segment part 24
           ENTRY                   ADDRESS         REF BY
           =====                   =======         ======
           cCmdWrapDrawLine        00100431 
               stack 1 = 00000000 ( 00000010 )
    -------------------------------------------------------------------------
CODE
  Relative segment, address: 00100470 - 00100539 (0xca bytes), align: 2
  Segment part 46.            Intra module refs:   Segment part 24
           ENTRY                   ADDRESS         REF BY
           =====                   =======         ======
           cCmdWrapDrawCircle      00100471 
               stack 1 = 00000000 ( 0000002C )
    -------------------------------------------------------------------------
CODE
  Relative segment, address: 0010053C - 0010057B (0x40 bytes), align: 2
  Segment part 48.            Intra module refs:   Segment part 24
           ENTRY                   ADDRESS         REF BY
           =====                   =======         ======
           cCmdWrapDrawRect        0010053D 
               stack 1 = 00000000 ( 00000010 )
    -------------------------------------------------------------------------
CODE
  Relative segment, address: 0010057C - 0010057F (0x4 bytes), align: 2
  Segment part 49.            Intra module refs:   cCmdWrapDrawCircle
                                                   cCmdWrapDrawLine
                                                   cCmdWrapDrawPoint
                                                   cCmdWrapDrawRect
                                                   cCmdWrapDrawText
    -------------------------------------------------------------------------
CODE
  Relative segment, address: 00100580 - 00100593 (0x14 bytes), align: 2
  Segment part 51.            Intra module refs:   cCmdResolveValue
                                                   cCmdWrapDrawPicture
           ENTRY                   ADDRESS         REF BY
           =====                   =======         ======
           cCmdGetIMGData          00100581 
               stack 1 = 00000000 ( 00000004 )
    -------------------------------------------------------------------------
CODE
  Relative segment, address: 00100594 - 001005A7 (0x14 bytes), align: 2
  Segment part 53.            Intra module refs:   cCmdWrapDrawPicture
           ENTRY                   ADDRESS         REF BY
           =====                   =======         ======
           cCmdSetIMGData          00100595 
               stack 1 = 00000000 ( 00000004 )
    -------------------------------------------------------------------------
CODE
  Relative segment, address: 001005A8 - 001005AB (0x4 bytes), align: 2
  Segment part 54.            Intra module refs:   cCmdGetIMGData
                                                   cCmdSetIMGData
    -------------------------------------------------------------------------
CODE
  Relative segment, address: 001005AC - 0010061B (0x70 bytes), align: 2
  Segment part 56.            Intra module refs:   cCmdWrapDrawPicture
           ENTRY                   ADDRESS         REF BY
           =====                   =======         ======
           cCmdResolveValue        001005AD 
               stack 1 = 00000000 ( 00000014 )
    -------------------------------------------------------------------------
CODE
  Relative segment, address: 0010061C - 001008CF (0x2b4 bytes), align: 2
  Segment part 58.            Intra module refs:   Segment part 24
           ENTRY                   ADDRESS         REF BY
           =====                   =======         ======
           cCmdWrapDrawPicture     0010061D 
               stack 1 = 00000000 ( 00000058 )
    -------------------------------------------------------------------------
CODE
  Relative segment, address: 001008D0 - 001008D3 (0x4 bytes), align: 2
  Segment part 59.            Intra module refs:   cCmdResolveValue
                                                   cCmdWrapDrawPicture
    -------------------------------------------------------------------------
CODE
  Relative segment, address: 001008D4 - 001008D7 (0x4 bytes), align: 2
  Segment part 60.            Intra module refs:   cCmdWrapDrawPicture
    -------------------------------------------------------------------------
CODE
  Relative segment, address: 001008D8 - 001008DB (0x4 bytes), align: 2
  Segment part 61.            Intra module refs:   cCmdWrapDrawPicture
    -------------------------------------------------------------------------
CODE
  Relative segment, address: 001008DC - 00100973 (0x98 bytes), align: 2
  Segment part 63.            Intra module refs:   cCmdDrawRect
                                                   cCmdWrapDrawLine
                                                   cCmdWrapDrawPicture
           ENTRY                   ADDRESS         REF BY
           =====                   =======         ======
           cCmdDrawLine            001008DD 
               stack 1 = 00000000 ( 00000028 )
    -------------------------------------------------------------------------
CODE
  Relative segment, address: 00100974 - 001009AB (0x38 bytes), align: 2
  Segment part 65.            Intra module refs:   cCmdWrapDrawPicture
                                                   cCmdWrapDrawRect
           ENTRY                   ADDRESS         REF BY
           =====                   =======         ======
           cCmdDrawRect            00100975 
               stack 1 = 00000000 ( 00000014 )
    -------------------------------------------------------------------------
CODE
  Relative segment, address: 001009AC - 001009B1 (0x6 bytes), align: 2
  Segment part 66.            Intra module refs:   cCmdCopyBitMapBits
                                                   cCmdCtrl
                                                   cCmdDrawLine
                                                   cCmdDrawRect
                                                   cCmdDrawString
                                                   cCmdInit
                                                   cCmdLoadCalibrationFiles
           LOCAL                   ADDRESS         
           =====                   =======         
           ?Subroutine173          001009AD 
    -------------------------------------------------------------------------
CODE
  Relative segment, address: 001009B4 - 00100ABB (0x108 bytes), align: 2
  Segment part 68.            Intra module refs:   cCmdWrapDrawPicture
           ENTRY                   ADDRESS         REF BY
           =====                   =======         ======
           cCmdCopyBitMapBits      001009B5 
               stack 1 = 00000000 ( 00000040 )
    -------------------------------------------------------------------------
CODE
  Relative segment, address: 00100ABC - 00100AEF (0x34 bytes), align: 2
  Segment part 70.            Intra module refs:   cCmdDrawLine
                                                   cCmdWrapDrawCircle
                                                   cCmdWrapDrawPicture
                                                   cCmdWrapDrawPoint
           ENTRY                   ADDRESS         REF BY
           =====                   =======         ======
           cCmdSetPixel            00100ABD 
               stack 1 = 00000000 ( 00000014 )
    -------------------------------------------------------------------------
CODE
  Relative segment, address: 00100AF0 - 00100B03 (0x14 bytes), align: 2
  Segment part 72.            Intra module refs:   Segment part 24
           ENTRY                   ADDRESS         REF BY
           =====                   =======         ======
           cCmdWrapSetScreenMode   00100AF1 
               stack 1 = 00000000 ( 00000008 )
    -------------------------------------------------------------------------
CODE
  Relative segment, address: 00100B04 - 00100B47 (0x44 bytes), align: 2
  Segment part 74.            Intra module refs:   cCmdWrapDrawCircle
                                                   cCmdWrapDrawLine
                                                   cCmdWrapDrawPicture
                                                   cCmdWrapDrawPoint
                                                   cCmdWrapDrawRect
                                                   cCmdWrapDrawText
           ENTRY                   ADDRESS         REF BY
           =====                   =======         ======
           cCmdClearScreenIfNeeded
                                   00100B05 
               stack 1 = 00000000 ( 00000014 )
    -------------------------------------------------------------------------
CODE
  Relative segment, address: 00100B48 - 00100BA7 (0x60 bytes), align: 2
  Segment part 76.            Intra module refs:   cCmdWrapDrawPicture
                                                   cCmdWrapDrawText
           ENTRY                   ADDRESS         REF BY
           =====                   =======         ======
           cCmdDrawString          00100B49 
               stack 1 = 00000000 ( 00000014 )
    -------------------------------------------------------------------------
CODE
  Relative segment, address: 00100BA8 - 00100BAB (0x4 bytes), align: 2
  Segment part 77.            Intra module refs:   cCmdCopyBitMapBits
                                                   cCmdDrawString
                                                   cCmdSetPixel
    -------------------------------------------------------------------------
CODE
  Relative segment, address: 00100BAC - 00100BEB (0x40 bytes), align: 2
  Segment part 79.            Intra module refs:   cCmdCtrl
                                                   cCmdWrapSetScreenMode
           ENTRY                   ADDRESS         REF BY
           =====                   =======         ======
           cCmdRestoreDefaultScreen
                                   00100BAD 
               stack 1 = 00000000 ( 00000014 )
    -------------------------------------------------------------------------
CODE
  Relative segment, address: 00100BEC - 00100BF1 (0x6 bytes), align: 2
  Segment part 80.            Intra module refs:   cCmdClearScreenIfNeeded
                                                   cCmdEnQClump
                                                   cCmdRestoreDefaultScreen
           LOCAL                   ADDRESS         
           =====                   =======         
           ?Subroutine175          00100BED 
    -------------------------------------------------------------------------
CODE
  Relative segment, address: 00100BF4 - 00100BF7 (0x4 bytes), align: 2
  Segment part 81.            Intra module refs:   cCmdClearScreenIfNeeded
                                                   cCmdRestoreDefaultScreen
    -------------------------------------------------------------------------
CODE
  Relative segment, address: 00100BF8 - 00100BFB (0x4 bytes), align: 2
  Segment part 82.            Intra module refs:   cCmdClearScreenIfNeeded
                                                   cCmdRestoreDefaultScreen
    -------------------------------------------------------------------------
DATA_Z
  Relative segment, address: 00008B44 - 00008BA3 (0x60 bytes), align: 2
  Segment part 31.            Intra module refs:   Segment part 30
                                                   cCmdInit
           ENTRY                   ADDRESS         REF BY
           =====                   =======         ======
           IO_PTRS_IN              00008B44 
    -------------------------------------------------------------------------
DATA_Z
  Relative segment, address: 00008BA4 - 00008C57 (0xb4 bytes), align: 2
  Segment part 32.            Intra module refs:   Segment part 30
                                                   cCmdInit
           ENTRY                   ADDRESS         REF BY
           =====                   =======         ======
           IO_PTRS_OUT             00008BA4 
    -------------------------------------------------------------------------
CODE
  Relative segment, address: 00100BFC - 00100C4B (0x50 bytes), align: 2
  Segment part 84.            Intra module refs:   cCmdHandleRemoteCommands
           ENTRY                   ADDRESS         REF BY
           =====                   =======         ======
           cCmdBTGetDeviceType     00100BFD 
               stack 1 = 00000000 ( 00000008 )
    -------------------------------------------------------------------------
CODE
  Relative segment, address: 00100C4C - 00101547 (0x8fc bytes), align: 2
  Segment part 86.            Intra module refs:   cCmdInit
           ENTRY                   ADDRESS         REF BY
           =====                   =======         ======
           cCmdHandleRemoteCommands
                                   00100C4D 
               stack 1 = 00000000 ( 0000003C )
    -------------------------------------------------------------------------
CODE
  Relative segment, address: 00101548 - 0010154B (0x4 bytes), align: 2
  Segment part 87.            Intra module refs:   cCmdHandleRemoteCommands
    -------------------------------------------------------------------------
CODE
  Relative segment, address: 0010154C - 0010154F (0x4 bytes), align: 2
  Segment part 88.            Intra module refs:   cCmdHandleRemoteCommands
    -------------------------------------------------------------------------
CODE
  Relative segment, address: 00101550 - 00101553 (0x4 bytes), align: 2
  Segment part 89.            Intra module refs:   cCmdHandleRemoteCommands
    -------------------------------------------------------------------------
CODE
  Relative segment, address: 00101554 - 001016D3 (0x180 bytes), align: 2
  Segment part 91.            Intra module refs:   cCmd
           ENTRY                   ADDRESS         REF BY
           =====                   =======         ======
           cCmdInit                00101555 
               stack 1 = 00000000 ( 00000014 )
    -------------------------------------------------------------------------
CODE
  Relative segment, address: 001016D4 - 001016D7 (0x4 bytes), align: 2
  Segment part 92.            Intra module refs:   cCmdHandleRemoteCommands
                                                   cCmdInit
    -------------------------------------------------------------------------
CODE
  Relative segment, address: 001016D8 - 001016DB (0x4 bytes), align: 2
  Segment part 93.            Intra module refs:   cCmdInit
    -------------------------------------------------------------------------
CODE
  Relative segment, address: 001016DC - 001016DF (0x4 bytes), align: 2
  Segment part 94.            Intra module refs:   cCmdInit
    -------------------------------------------------------------------------
CODE
  Relative segment, address: 001016E0 - 001016E3 (0x4 bytes), align: 2
  Segment part 95.            Intra module refs:   cCmdInit
    -------------------------------------------------------------------------
CODE
  Relative segment, address: 001016E4 - 001018AF (0x1cc bytes), align: 2
  Segment part 97.            Intra module refs:   cCmd
           ENTRY                   ADDRESS         REF BY
           =====                   =======         ======
           cCmdCtrl                001016E5 
               stack 1 = 00000000 ( 0000001C )
    -------------------------------------------------------------------------
CODE
  Relative segment, address: 001018B0 - 001018B3 (0x4 bytes), align: 2
  Segment part 98.            Intra module refs:   cCmdCtrl
                                                   cCmdInit
    -------------------------------------------------------------------------
CODE
  Relative segment, address: 001018B4 - 001018B7 (0x4 bytes), align: 2
  Segment part 99.            Intra module refs:   cCmdCtrl
    -------------------------------------------------------------------------
CODE
  Relative segment, address: 001018B8 - 001018BB (0x4 bytes), align: 2
  Segment part 100.           Intra module refs:   cCmdCtrl
    -------------------------------------------------------------------------
CODE
  Relative segment, address: 001018BC - 001018BF (0x4 bytes), align: 2
  Segment part 101.           Intra module refs:   cCmdCtrl
                                                   cCmdInit
    -------------------------------------------------------------------------
CODE
  Relative segment, address: 001018C0 - 001018C9 (0xa bytes), align: 2
  Segment part 103.           Intra module refs:   cCmd
           ENTRY                   ADDRESS         REF BY
           =====                   =======         ======
           cCmdExit                001018C1 
               stack 1 = 00000000 ( 00000004 )
    -------------------------------------------------------------------------
CODE
  Relative segment, address: 001018CC - 00101A2B (0x160 bytes), align: 2
  Segment part 105.           Intra module refs:   cCmdActivateProgram
           ENTRY                   ADDRESS         REF BY
           =====                   =======         ======
           cCmdReadFileHeader      001018CD 
               stack 1 = 00000000 ( 0000001C )
    -------------------------------------------------------------------------
CODE
  Relative segment, address: 00101A2C - 00101A3F (0x14 bytes), align: 2
  Segment part 106.           Intra module refs:   cCmdBinopFlt
                                                   cCmdCalcFlattenedSize
                                                   cCmdDatalogRead
                                                   cCmdInterpScalarUnop2
                                                   cCmdLSWrite
                                                   cCmdMemMgrMoveToTail
                                                   cCmdMove
                                                   cCmdReadFileHeader
                                                   cCmdVerifyMemMgr
           LOCAL                   ADDRESS         
           =====                   =======         
           ?Subroutine176          00101A2D 
    -------------------------------------------------------------------------
CODE
  Relative segment, address: 00101A40 - 00101A43 (0x4 bytes), align: 2
  Segment part 107.           Intra module refs:   cCmdReadFileHeader
    -------------------------------------------------------------------------
CODE
  Relative segment, address: 00101A44 - 00101A47 (0x4 bytes), align: 2
  Segment part 108.           Intra module refs:   cCmdReadFileHeader
    -------------------------------------------------------------------------
CODE
  Relative segment, address: 00101A48 - 00101A4B (0x4 bytes), align: 2
  Segment part 109.           Intra module refs:   cCmdReadFileHeader
    -------------------------------------------------------------------------
CODE
  Relative segment, address: 00101A4C - 00101AF1 (0xa6 bytes), align: 2
  Segment part 111.           Intra module refs:   cCmdActivateProgram
           ENTRY                   ADDRESS         REF BY
           =====                   =======         ======
           cCmdInflateDSDefaults   00101A4D 
               stack 1 = 00000000 ( 00000020 )
    -------------------------------------------------------------------------
CODE
  Relative segment, address: 00101AF4 - 00101AF7 (0x4 bytes), align: 2
  Segment part 112.           Intra module refs:   cCmdInflateDSDefaults
    -------------------------------------------------------------------------
CODE
  Relative segment, address: 00101AF8 - 00101AFB (0x4 bytes), align: 2
  Segment part 113.           Intra module refs:   cCmdInflateDSDefaults
    -------------------------------------------------------------------------
CODE
  Relative segment, address: 00101AFC - 00101B37 (0x3c bytes), align: 2
  Segment part 115.           Intra module refs:   cCmdActivateProgram
                                                   cCmdDeQClump
                                                   cCmdEnQClump
                                                   cCmdRotateQ
           ENTRY                   ADDRESS         REF BY
           =====                   =======         ======
           cCmdRefreshActiveClump
                                   00101AFD 
               stack 1 = 00000000 ( 00000004 )
    -------------------------------------------------------------------------
CODE
  Relative segment, address: 00101B38 - 00101B3B (0x4 bytes), align: 2
  Segment part 116.           Intra module refs:   cCmdRefreshActiveClump
    -------------------------------------------------------------------------
CODE
  Relative segment, address: 00101B3C - 00101B3F (0x4 bytes), align: 2
  Segment part 117.           Intra module refs:   cCmdRefreshActiveClump
    -------------------------------------------------------------------------
CODE
  Relative segment, address: 00101B40 - 00101EFF (0x3c0 bytes), align: 2
  Segment part 119.           Intra module refs:   cCmdCtrl
           ENTRY                   ADDRESS         REF BY
           =====                   =======         ======
           cCmdActivateProgram     00101B41 
               stack 1 = 00000000 ( 00000060 )
    -------------------------------------------------------------------------
CODE
  Relative segment, address: 00101F00 - 00101F03 (0x4 bytes), align: 2
  Segment part 120.           Intra module refs:   cCmdActivateProgram
    -------------------------------------------------------------------------
CODE
  Relative segment, address: 00101F04 - 00101F07 (0x4 bytes), align: 2
  Segment part 121.           Intra module refs:   cCmdActivateProgram
    -------------------------------------------------------------------------
CODE
  Relative segment, address: 00101F08 - 00101F0B (0x4 bytes), align: 2
  Segment part 122.           Intra module refs:   cCmdActivateProgram
    -------------------------------------------------------------------------
CODE
  Relative segment, address: 00101F0C - 00101FB7 (0xac bytes), align: 2
  Segment part 124.           Intra module refs:   cCmdActivateProgram
                                                   cCmdCtrl
                                                   cCmdInit
           ENTRY                   ADDRESS         REF BY
           =====                   =======         ======
           cCmdDeactivateProgram   00101F0D 
               stack 1 = 00000000 ( 00000018 )
    -------------------------------------------------------------------------
CODE
  Relative segment, address: 00101FB8 - 00101FBB (0x4 bytes), align: 2
  Segment part 125.           Intra module refs:   cCmdActivateProgram
                                                   cCmdDeactivateProgram
    -------------------------------------------------------------------------
CODE
  Relative segment, address: 00101FBC - 00101FBF (0x4 bytes), align: 2
  Segment part 126.           Intra module refs:   cCmdDeactivateProgram
    -------------------------------------------------------------------------
CODE
  Relative segment, address: 00101FC0 - 001020ED (0x12e bytes), align: 2
  Segment part 128.           Intra module refs:   cCmdCtrl
           ENTRY                   ADDRESS         REF BY
           =====                   =======         ======
           cCmdResetDevices        00101FC1 
               stack 1 = 00000000 ( 00000010 )
    -------------------------------------------------------------------------
CODE
  Relative segment, address: 001020F0 - 001020F3 (0x4 bytes), align: 2
  Segment part 129.           Intra module refs:   cCmdDeactivateProgram
                                                   cCmdResetDevices
    -------------------------------------------------------------------------
CODE
  Relative segment, address: 001020F4 - 00102135 (0x42 bytes), align: 2
  Segment part 131.           Intra module refs:   cCmdAcquireMutex
                                                   cCmdActivateProgram
                                                   cCmdCheckRestQ
                                                   cCmdInterpShortSubCall
                                                   cCmdInterpUnop1
                                                   cCmdInterpUnop2
                                                   cCmdReleaseMutex
                                                   cCmdSchedDependent
                                                   cCmdSchedDependents
                                                   cCmdSleepClump
           ENTRY                   ADDRESS         REF BY
           =====                   =======         ======
           cCmdEnQClump            001020F5 
               stack 1 = 00000000 ( 0000000C )
    -------------------------------------------------------------------------
CODE
  Relative segment, address: 00102138 - 001021A7 (0x70 bytes), align: 2
  Segment part 133.           Intra module refs:   cCmdAcquireMutex
                                                   cCmdCheckRestQ
                                                   cCmdInterpShortSubCall
                                                   cCmdInterpUnop1
                                                   cCmdInterpUnop2
                                                   cCmdReleaseMutex
                                                   cCmdSleepClump
           ENTRY                   ADDRESS         REF BY
           =====                   =======         ======
           cCmdDeQClump            00102139 
               stack 1 = 00000000 ( 00000018 )
    -------------------------------------------------------------------------
CODE
  Relative segment, address: 001021A8 - 001021AD (0x6 bytes), align: 2
  Segment part 134.           Intra module refs:   cCmdDeQClump
                                                   cCmdDeactivateProgram
                                                   cCmdUpdateCalibrationCache
           LOCAL                   ADDRESS         
           =====                   =======         
           ?Subroutine178          001021A9 
    -------------------------------------------------------------------------
CODE
  Relative segment, address: 001021B0 - 001021B3 (0x4 bytes), align: 2
  Segment part 135.           Intra module refs:   cCmdActivateProgram
                                                   cCmdDeQClump
                                                   cCmdDeactivateProgram
                                                   cCmdEnQClump
    -------------------------------------------------------------------------
CODE
  Relative segment, address: 001021B4 - 001021E7 (0x34 bytes), align: 2
  Segment part 137.           Intra module refs:   cCmdCtrl
           ENTRY                   ADDRESS         REF BY
           =====                   =======         ======
           cCmdRotateQ             001021B5 
               stack 1 = 00000000 ( 00000010 )
    -------------------------------------------------------------------------
CODE
  Relative segment, address: 001021E8 - 001021ED (0x6 bytes), align: 2
  Segment part 138.           Intra module refs:   cCmdResetDevices
                                                   cCmdRotateQ
           LOCAL                   ADDRESS         
           =====                   =======         
           ?Subroutine179          001021E9 
    -------------------------------------------------------------------------
CODE
  Relative segment, address: 001021F0 - 001021F3 (0x4 bytes), align: 2
  Segment part 139.           Intra module refs:   cCmdDeQClump
                                                   cCmdDeactivateProgram
                                                   cCmdEnQClump
                                                   cCmdRotateQ
    -------------------------------------------------------------------------
CODE
  Relative segment, address: 001021F4 - 0010221D (0x2a bytes), align: 2
  Segment part 146.           Intra module refs:   cCmdInterpShortAcquire
                                                   cCmdInterpUnop1
           ENTRY                   ADDRESS         REF BY
           =====                   =======         ======
           cCmdAcquireMutex        001021F5 
               stack 1 = 00000000 ( 0000000C )
    -------------------------------------------------------------------------
CODE
  Relative segment, address: 00102220 - 0010223D (0x1e bytes), align: 2
  Segment part 148.           Intra module refs:   cCmdInterpShortRelease
                                                   cCmdInterpUnop1
           ENTRY                   ADDRESS         REF BY
           =====                   =======         ======
           cCmdReleaseMutex        00102221 
               stack 1 = 00000000 ( 00000008 )
    -------------------------------------------------------------------------
CODE
  Relative segment, address: 00102240 - 00102243 (0x4 bytes), align: 2
  Segment part 149.           Intra module refs:   cCmdAcquireMutex
                                                   cCmdReleaseMutex
    -------------------------------------------------------------------------
CODE
  Relative segment, address: 00102244 - 00102273 (0x30 bytes), align: 2
  Segment part 151.           Intra module refs:   cCmdInterpUnop2
           ENTRY                   ADDRESS         REF BY
           =====                   =======         ======
           cCmdSleepClump          00102245 
               stack 1 = 00000000 ( 00000014 )
    -------------------------------------------------------------------------
CODE
  Relative segment, address: 00102274 - 001022B7 (0x44 bytes), align: 2
  Segment part 153.           Intra module refs:   cCmdCtrl
           ENTRY                   ADDRESS         REF BY
           =====                   =======         ======
           cCmdCheckRestQ          00102275 
               stack 1 = 00000000 ( 00000018 )
    -------------------------------------------------------------------------
CODE
  Relative segment, address: 001022B8 - 001022BB (0x4 bytes), align: 2
  Segment part 154.           Intra module refs:   cCmdCheckRestQ
                                                   cCmdSleepClump
    -------------------------------------------------------------------------
CODE
  Relative segment, address: 001022BC - 00102311 (0x56 bytes), align: 2
  Segment part 156.           Intra module refs:   cCmdInterpUnop2
           ENTRY                   ADDRESS         REF BY
           =====                   =======         ======
           cCmdSchedDependents     001022BD 
               stack 1 = 00000000 ( 00000018 )
    -------------------------------------------------------------------------
CODE
  Relative segment, address: 00102314 - 00102337 (0x24 bytes), align: 2
  Segment part 158.           Intra module refs:   cCmdInterpUnop1
           ENTRY                   ADDRESS         REF BY
           =====                   =======         ======
           cCmdSchedDependent      00102315 
               stack 1 = 00000000 ( 00000004 )
    -------------------------------------------------------------------------
CODE
  Relative segment, address: 00102338 - 0010233B (0x4 bytes), align: 2
  Segment part 159.           Intra module refs:   cCmdCheckRestQ
                                                   cCmdRotateQ
                                                   cCmdSchedDependent
                                                   cCmdSchedDependents
                                                   cCmdSleepClump
    -------------------------------------------------------------------------
CODE
  Relative segment, address: 0010233C - 0010233F (0x4 bytes), align: 2
  Segment part 160.           Intra module refs:   cCmdCheckRestQ
                                                   cCmdDeQClump
                                                   cCmdEnQClump
                                                   cCmdRotateQ
                                                   cCmdSchedDependent
                                                   cCmdSchedDependents
                                                   cCmdSleepClump
    -------------------------------------------------------------------------
CODE
  Relative segment, address: 00102340 - 00102343 (0x4 bytes), align: 2
  Segment part 161.           Intra module refs:   cCmdCheckRestQ
                                                   cCmdSchedDependent
                                                   cCmdSchedDependents
                                                   cCmdSleepClump
    -------------------------------------------------------------------------
CODE
  Relative segment, address: 00102344 - 0010235B (0x18 bytes), align: 2
  Segment part 163.           Intra module refs:   cCmdCtrl
                                                   cCmdInterpFromClump
           ENTRY                   ADDRESS         REF BY
           =====                   =======         ======
           cCmdIsClumpIDSane       00102345 
               stack 1 = 00000000 ( 00000004 )
    -------------------------------------------------------------------------
CODE
  Relative segment, address: 0010235C - 0010238B (0x30 bytes), align: 2
  Segment part 165.           Intra module refs:   cCmdActivateProgram
                                                   cCmdInit
           ENTRY                   ADDRESS         REF BY
           =====                   =======         ======
           cCmdInitPool            0010235D 
               stack 1 = 00000000 ( 00000004 )
    -------------------------------------------------------------------------
CODE
  Relative segment, address: 0010238C - 0010238F (0x4 bytes), align: 2
  Segment part 166.           Intra module refs:   cCmdInitPool
    -------------------------------------------------------------------------
CODE
  Relative segment, address: 00102390 - 0010244F (0xc0 bytes), align: 2
  Segment part 168.           Intra module refs:   cCmdInterpBinop
                                                   cCmdInterpOther
                                                   cCmdInterpPolyBinop
                                                   cCmdInterpPolyUnop2
                                                   cCmdInterpUnop2
                                                   cCmdMove
           ENTRY                   ADDRESS         REF BY
           =====                   =======         ======
           cCmdDSArrayAlloc        00102391 
               stack 1 = 00000000 ( 00000020 )
    -------------------------------------------------------------------------
CODE
  Relative segment, address: 00102450 - 00102455 (0x6 bytes), align: 2
  Segment part 169.           Intra module refs:   cCmdColorSensorRead
                                                   cCmdDSArrayAlloc
                                                   cCmdDSCompact
                                                   cCmdDVArrayAlloc
                                                   cCmdInflateDSDefaults
                                                   cCmdWrapMessageRead
           LOCAL                   ADDRESS         
           =====                   =======         
           ?Subroutine177          00102451 
    -------------------------------------------------------------------------
CODE
  Relative segment, address: 00102458 - 00102537 (0xe0 bytes), align: 2
  Segment part 171.           Intra module refs:   ?Subroutine172
                                                   ResizeCalibCache
                                                   cCmdDSArrayAlloc
                                                   cCmdDatalogWrite
                                                   cCmdMessageWrite
                                                   cCmdWrapColorSensorRead
                                                   cCmdWrapFileRead
                                                   cCmdWrapIOMapRead
                                                   cCmdWrapListFiles
                                                   cCmdWrapMessageRead
           ENTRY                   ADDRESS         REF BY
           =====                   =======         ======
           cCmdDVArrayAlloc        00102459 
               stack 1 = 00000000 ( 00000020 )
    -------------------------------------------------------------------------
CODE
  Relative segment, address: 00102538 - 0010253B (0x4 bytes), align: 2
  Segment part 172.           Intra module refs:   cCmdDVArrayAlloc
    -------------------------------------------------------------------------
CODE
  Relative segment, address: 0010253C - 001025B7 (0x7c bytes), align: 2
  Segment part 174.           Intra module refs:   cCmdDSArrayAlloc
           ENTRY                   ADDRESS         REF BY
           =====                   =======         ======
           cCmdAllocSubArrayDopeVectors
                                   0010253D 
               stack 1 = 00000000 ( 00000024 )
    -------------------------------------------------------------------------
CODE
  Relative segment, address: 001025B8 - 0010265D (0xa6 bytes), align: 2
  Segment part 176.           Intra module refs:   cCmdDSArrayAlloc
           ENTRY                   ADDRESS         REF BY
           =====                   =======         ======
           cCmdFreeSubArrayDopeVectors
                                   001025B9 
               stack 1 = 00000000 ( 00000024 )
    -------------------------------------------------------------------------
CODE
  Relative segment, address: 00102660 - 00102663 (0x4 bytes), align: 2
  Segment part 177.           Intra module refs:   cCmdAllocSubArrayDopeVectors
                                                   cCmdDSArrayAlloc
                                                   cCmdFreeSubArrayDopeVectors
    -------------------------------------------------------------------------
CODE
  Relative segment, address: 00102664 - 001026CF (0x6c bytes), align: 2
  Segment part 179.           Intra module refs:   ResizeCalibCache
                                                   cCmdAllocSubArrayDopeVectors
                                                   cCmdDatalogWrite
                                                   cCmdMessageWrite
                                                   cCmdWrapListFiles
           ENTRY                   ADDRESS         REF BY
           =====                   =======         ======
           cCmdAllocDopeVector     00102665 
               stack 1 = 00000000 ( 00000014 )
    -------------------------------------------------------------------------
CODE
  Relative segment, address: 001026D0 - 00102743 (0x74 bytes), align: 2
  Segment part 181.           Intra module refs:   cCmdDatalogRead
                                                   cCmdDatalogWrite
                                                   cCmdFreeSubArrayDopeVectors
                                                   cCmdMessageRead
                                                   cCmdMessageWrite
           ENTRY                   ADDRESS         REF BY
           =====                   =======         ======
           cCmdFreeDopeVector      001026D1 
               stack 1 = 00000000 ( 00000018 )
    -------------------------------------------------------------------------
CODE
  Relative segment, address: 00102744 - 0010274B (0x8 bytes), align: 2
  Segment part 182.           Intra module refs:   cCmdCalcArrayElemSize
                                                   cCmdCheckRestQ
                                                   cCmdCompareAggregates
                                                   cCmdDatalogWrite
                                                   cCmdFreeDopeVector
                                                   cCmdLSRead
                                                   cCmdMessageWrite
                                                   cCmdSchedDependents
                                                   cCmdWrapColorSensorRead
                                                   cCmdWrapCommBTConnection
           LOCAL                   ADDRESS         
           =====                   =======         
           ?Subroutine180          00102745 
    -------------------------------------------------------------------------
CODE
  Relative segment, address: 0010274C - 0010274F (0x4 bytes), align: 2
  Segment part 183.           Intra module refs:   cCmdAllocDopeVector
                                                   cCmdDVArrayAlloc
                                                   cCmdFreeDopeVector
    -------------------------------------------------------------------------
CODE
  Relative segment, address: 00102750 - 0010281D (0xce bytes), align: 2
  Segment part 185.           Intra module refs:   cCmdActivateProgram
                                                   cCmdAllocDopeVector
           ENTRY                   ADDRESS         REF BY
           =====                   =======         ======
           cCmdGrowDopeVectorArray
                                   00102751 
               stack 1 = 00000000 ( 00000014 )
    -------------------------------------------------------------------------
CODE
  Relative segment, address: 00102820 - 00102823 (0x4 bytes), align: 2
  Segment part 186.           Intra module refs:   cCmdGrowDopeVectorArray
    -------------------------------------------------------------------------
CODE
  Relative segment, address: 00102824 - 00102827 (0x4 bytes), align: 2
  Segment part 187.           Intra module refs:   cCmdGrowDopeVectorArray
    -------------------------------------------------------------------------
CODE
  Relative segment, address: 00102828 - 0010282B (0x4 bytes), align: 2
  Segment part 188.           Intra module refs:   cCmdGrowDopeVectorArray
    -------------------------------------------------------------------------
CODE
  Relative segment, address: 0010282C - 001028AB (0x80 bytes), align: 2
  Segment part 190.           Intra module refs:   cCmdAllocSubArrayDopeVectors
           ENTRY                   ADDRESS         REF BY
           =====                   =======         ======
           cCmdCalcArrayElemSize   0010282D 
               stack 1 = 00000000 ( 00000018 )
    -------------------------------------------------------------------------
CODE
  Relative segment, address: 001028AC - 001028AF (0x4 bytes), align: 2
  Segment part 191.           Intra module refs:   cCmdCalcArrayElemSize
    -------------------------------------------------------------------------
CODE
  Relative segment, address: 001028B0 - 001028B3 (0x4 bytes), align: 2
  Segment part 192.           Intra module refs:   cCmdCalcArrayElemSize
    -------------------------------------------------------------------------
CODE
  Relative segment, address: 001028B4 - 0010292D (0x7a bytes), align: 2
  Segment part 194.           Intra module refs:   cCmdDVArrayAlloc
                                                   cCmdGrowDopeVectorArray
           ENTRY                   ADDRESS         REF BY
           =====                   =======         ======
           cCmdMemMgrMoveToTail    001028B5 
               stack 1 = 00000000 ( 0000001C )
    -------------------------------------------------------------------------
CODE
  Relative segment, address: 00102930 - 00102933 (0x4 bytes), align: 2
  Segment part 195.           Intra module refs:   cCmdFreeDopeVector
                                                   cCmdMemMgrMoveToTail
    -------------------------------------------------------------------------
CODE
  Relative segment, address: 00102934 - 00102963 (0x30 bytes), align: 2
  Segment part 197.           Intra module refs:   cCmdAllocDopeVector
           ENTRY                   ADDRESS         REF BY
           =====                   =======         ======
           cCmdMemMgrInsertAtTail
                                   00102935 
               stack 1 = 00000000 ( 00000004 )
    -------------------------------------------------------------------------
CODE
  Relative segment, address: 00102964 - 00102A13 (0xb0 bytes), align: 2
  Segment part 199.           Intra module refs:   cCmdActivateProgram
           ENTRY                   ADDRESS         REF BY
           =====                   =======         ======
           cCmdVerifyMemMgr        00102965 
               stack 1 = 00000000 ( 0000001C )
    -------------------------------------------------------------------------
CODE
  Relative segment, address: 00102A14 - 00102A17 (0x4 bytes), align: 2
  Segment part 200.           Intra module refs:   cCmdVerifyMemMgr
    -------------------------------------------------------------------------
CODE
  Relative segment, address: 00102A18 - 00102A1B (0x4 bytes), align: 2
  Segment part 201.           Intra module refs:   cCmdGrowDopeVectorArray
                                                   cCmdMemMgrInsertAtTail
                                                   cCmdMemMgrMoveToTail
                                                   cCmdVerifyMemMgr
    -------------------------------------------------------------------------
CODE
  Relative segment, address: 00102A1C - 00102AE7 (0xcc bytes), align: 2
  Segment part 203.           Intra module refs:   cCmdHandleRemoteCommands
                                                   cCmdInterpFromClump
           ENTRY                   ADDRESS         REF BY
           =====                   =======         ======
           cCmdDSCompact           00102A1D 
               stack 1 = 00000000 ( 00000020 )
    -------------------------------------------------------------------------
CODE
  Relative segment, address: 00102AE8 - 00102AEB (0x4 bytes), align: 2
  Segment part 204.           Intra module refs:   cCmdDSCompact
    -------------------------------------------------------------------------
CODE
  Relative segment, address: 00102AEC - 00102AEF (0x4 bytes), align: 2
  Segment part 205.           Intra module refs:   cCmdDSCompact
    -------------------------------------------------------------------------
CODE
  Relative segment, address: 00102AF0 - 00102AF3 (0x4 bytes), align: 2
  Segment part 206.           Intra module refs:   cCmdDSCompact
    -------------------------------------------------------------------------
CODE
  Relative segment, address: 00102AF4 - 00102BC5 (0xd2 bytes), align: 2
  Segment part 208.           Intra module refs:   cCmdHandleRemoteCommands
                                                   cCmdWrapMessageWrite
           ENTRY                   ADDRESS         REF BY
           =====                   =======         ======
           cCmdMessageWrite        00102AF5 
               stack 1 = 00000000 ( 00000018 )
    -------------------------------------------------------------------------
CODE
  Relative segment, address: 00102BC8 - 00102BCB (0x4 bytes), align: 2
  Segment part 209.           Intra module refs:   cCmdMemMgrInsertAtTail
                                                   cCmdMessageWrite
    -------------------------------------------------------------------------
CODE
  Relative segment, address: 00102BCC - 00102BCF (0x4 bytes), align: 2
  Segment part 210.           Intra module refs:   cCmdMemMgrInsertAtTail
                                                   cCmdMessageWrite
    -------------------------------------------------------------------------
CODE
  Relative segment, address: 00102BD0 - 00102C2F (0x60 bytes), align: 2
  Segment part 212.           Intra module refs:   cCmdHandleRemoteCommands
                                                   cCmdWrapMessageRead
           ENTRY                   ADDRESS         REF BY
           =====                   =======         ======
           cCmdMessageGetSize      00102BD1 
               stack 1 = 00000000 ( 0000000C )
    -------------------------------------------------------------------------
CODE
  Relative segment, address: 00102C30 - 00102CE3 (0xb4 bytes), align: 2
  Segment part 214.           Intra module refs:   cCmdHandleRemoteCommands
                                                   cCmdWrapMessageRead
           ENTRY                   ADDRESS         REF BY
           =====                   =======         ======
           cCmdMessageRead         00102C31 
               stack 1 = 00000000 ( 00000024 )
    -------------------------------------------------------------------------
CODE
  Relative segment, address: 00102CE4 - 00102CE7 (0x4 bytes), align: 2
  Segment part 215.           Intra module refs:   cCmdMessageGetSize
                                                   cCmdMessageRead
                                                   cCmdMessageWrite
    -------------------------------------------------------------------------
CODE
  Relative segment, address: 00102CE8 - 00102CEB (0x4 bytes), align: 2
  Segment part 216.           Intra module refs:   cCmdMessageGetSize
                                                   cCmdMessageRead
                                                   cCmdMessageWrite
    -------------------------------------------------------------------------
CODE
  Relative segment, address: 00102CEC - 00102CEF (0x4 bytes), align: 2
  Segment part 217.           Intra module refs:   cCmdDSCompact
                                                   cCmdMessageRead
                                                   cCmdMessageWrite
    -------------------------------------------------------------------------
CODE
  Relative segment, address: 00102CF0 - 00102DAF (0xc0 bytes), align: 2
  Segment part 219.           Intra module refs:   cCmdWrapDatalogWrite
           ENTRY                   ADDRESS         REF BY
           =====                   =======         ======
           cCmdDatalogWrite        00102CF1 
               stack 1 = 00000000 ( 00000018 )
    -------------------------------------------------------------------------
CODE
  Relative segment, address: 00102DB0 - 00102DFF (0x50 bytes), align: 2
  Segment part 221.           Intra module refs:   cCmdHandleRemoteCommands
           ENTRY                   ADDRESS         REF BY
           =====                   =======         ======
           cCmdDatalogGetSize      00102DB1 
               stack 1 = 00000000 ( 0000000C )
    -------------------------------------------------------------------------
CODE
  Relative segment, address: 00102E00 - 00102E03 (0x4 bytes), align: 2
  Segment part 222.           Intra module refs:   cCmdDatalogGetSize
                                                   cCmdDatalogWrite
                                                   cCmdMessageGetSize
                                                   cCmdMessageRead
    -------------------------------------------------------------------------
CODE
  Relative segment, address: 00102E04 - 00102E07 (0x4 bytes), align: 2
  Segment part 223.           Intra module refs:   cCmdDatalogGetSize
                                                   cCmdDatalogWrite
    -------------------------------------------------------------------------
CODE
  Relative segment, address: 00102E08 - 00102E9D (0x96 bytes), align: 2
  Segment part 225.           Intra module refs:   cCmdHandleRemoteCommands
           ENTRY                   ADDRESS         REF BY
           =====                   =======         ======
           cCmdDatalogRead         00102E09 
               stack 1 = 00000000 ( 0000001C )
    -------------------------------------------------------------------------
CODE
  Relative segment, address: 00102EA0 - 00102EA3 (0x4 bytes), align: 2
  Segment part 226.           Intra module refs:   cCmdDatalogRead
    -------------------------------------------------------------------------
CODE
  Relative segment, address: 00102EA4 - 00102EA7 (0x4 bytes), align: 2
  Segment part 227.           Intra module refs:   cCmdDatalogRead
    -------------------------------------------------------------------------
CODE
  Relative segment, address: 00102EA8 - 00102EAB (0x4 bytes), align: 2
  Segment part 228.           Intra module refs:   cCmdDatalogGetSize
                                                   cCmdDatalogRead
                                                   cCmdDatalogWrite
                                                   cCmdMessageGetSize
                                                   cCmdMessageRead
    -------------------------------------------------------------------------
CODE
  Relative segment, address: 00102EAC - 00102EAF (0x4 bytes), align: 2
  Segment part 229.           Intra module refs:   cCmdDatalogRead
                                                   cCmdDatalogWrite
    -------------------------------------------------------------------------
CODE
  Relative segment, address: 00102EB0 - 00102F5D (0xae bytes), align: 2
  Segment part 231.           Intra module refs:   cCmdWrapColorSensorRead
           ENTRY                   ADDRESS         REF BY
           =====                   =======         ======
           cCmdColorSensorRead     00102EB1 
               stack 1 = 00000000 ( 00000020 )
    -------------------------------------------------------------------------
CODE
  Relative segment, address: 00102F60 - 00102F63 (0x4 bytes), align: 2
  Segment part 232.           Intra module refs:   cCmdColorSensorRead
    -------------------------------------------------------------------------
CODE
  Relative segment, address: 00102F64 - 00102F75 (0x12 bytes), align: 2
  Segment part 234.           Intra module refs:   cCmdNextDSElement
           ENTRY                   ADDRESS         REF BY
           =====                   =======         ======
           cCmdIsDSElementIDSane   00102F65 
               stack 1 = 00000000 ( 00000004 )
    -------------------------------------------------------------------------
CODE
  Relative segment, address: 00102F78 - 00102F7B (0x4 bytes), align: 2
  Segment part 235.           Intra module refs:   cCmdIsDSElementIDSane
    -------------------------------------------------------------------------
CODE
  Relative segment, address: 00102F7C - 00102F97 (0x1c bytes), align: 2
  Segment part 237.           Intra module refs:   cCmdExecuteSetOut
                                                   cCmdFlattenToByteArray
                                                   cCmdInflateDSDefaults
                                                   cCmdInterpOther
                                                   cCmdInterpPolyBinop
                                                   cCmdInterpPolyUnop2
                                                   cCmdInterpUnop2
                                                   cCmdMove
                                                   cCmdUnflattenFromByteArray
           ENTRY                   ADDRESS         REF BY
           =====                   =======         ======
           cCmdResolveDataArg      00102F7D 
               stack 1 = 00000000 ( 0000000C )
    -------------------------------------------------------------------------
CODE
  Relative segment, address: 00102F98 - 00102FC9 (0x32 bytes), align: 2
  Segment part 239.           Intra module refs:   cCmdIOGetSet
           ENTRY                   ADDRESS         REF BY
           =====                   =======         ======
           cCmdResolveIODataArg    00102F99 
               stack 1 = 00000000 ( 0000000C )
    -------------------------------------------------------------------------
CODE
  Relative segment, address: 00102FCC - 00102FCF (0x4 bytes), align: 2
  Segment part 240.           Intra module refs:   cCmdResolveIODataArg
    -------------------------------------------------------------------------
CODE
  Relative segment, address: 00102FD0 - 00103019 (0x4a bytes), align: 2
  Segment part 242.           Intra module refs:   cCmdInterpOther
                                                   cCmdInterpPolyBinop
                                                   cCmdInterpPolyUnop2
           ENTRY                   ADDRESS         REF BY
           =====                   =======         ======
           cCmdSetValFlt           00102FD1 
               stack 1 = 00000000 ( 00000008 )
    -------------------------------------------------------------------------
CODE
  Relative segment, address: 0010301C - 0010301D (0x2 bytes), align: 2
  Segment part 244.           Intra module refs:   Segment part 16
           ENTRY                   ADDRESS         REF BY
           =====                   =======         ======
           cCmdSetError            0010301D 
    -------------------------------------------------------------------------
CODE
  Relative segment, address: 00103020 - 00103023 (0x4 bytes), align: 2
  Segment part 246.           Intra module refs:   Segment part 16
           ENTRY                   ADDRESS         REF BY
           =====                   =======         ======
           cCmdSetLong             00103021 
    -------------------------------------------------------------------------
CODE
  Relative segment, address: 00103024 - 00103027 (0x4 bytes), align: 2
  Segment part 248.           Intra module refs:   Segment part 16
           ENTRY                   ADDRESS         REF BY
           =====                   =======         ======
           cCmdSetWord             00103025 
    -------------------------------------------------------------------------
CODE
  Relative segment, address: 00103028 - 0010302B (0x4 bytes), align: 2
  Segment part 250.           Intra module refs:   Segment part 16
           ENTRY                   ADDRESS         REF BY
           =====                   =======         ======
           cCmdSetByte             00103029 
    -------------------------------------------------------------------------
CODE
  Relative segment, address: 0010302C - 00103051 (0x26 bytes), align: 2
  Segment part 252.           Intra module refs:   cCmdExecuteSetOut
                                                   cCmdIOGetSet
                                                   cCmdInterpBinop
                                                   cCmdInterpOther
                                                   cCmdInterpPolyBinop
                                                   cCmdInterpPolyUnop2
                                                   cCmdInterpScalarBinop
                                                   cCmdInterpScalarUnop2
                                                   cCmdInterpUnop1
                                                   cCmdInterpUnop2
                                                   cCmdMove
                                                   cCmdRecursiveCompareAggregates
           ENTRY                   ADDRESS         REF BY
           =====                   =======         ======
           cCmdGetScalarValFromDataArg
                                   0010302D 
               stack 1 = 00000000 ( 00000004 )
    -------------------------------------------------------------------------
CODE
  Relative segment, address: 00103054 - 00103057 (0x4 bytes), align: 2
  Segment part 254.           Intra module refs:   Segment part 16
           ENTRY                   ADDRESS         REF BY
           =====                   =======         ======
           cCmdGetError            00103055 
    -------------------------------------------------------------------------
CODE
  Relative segment, address: 00103058 - 0010305B (0x4 bytes), align: 2
  Segment part 256.           Intra module refs:   Segment part 16
           ENTRY                   ADDRESS         REF BY
           =====                   =======         ======
           cCmdGetULong            00103059 
    -------------------------------------------------------------------------
CODE
  Relative segment, address: 0010305C - 0010305F (0x4 bytes), align: 2
  Segment part 258.           Intra module refs:   Segment part 16
           ENTRY                   ADDRESS         REF BY
           =====                   =======         ======
           cCmdGetSLong            0010305D 
    -------------------------------------------------------------------------
CODE
  Relative segment, address: 00103060 - 00103063 (0x4 bytes), align: 2
  Segment part 260.           Intra module refs:   Segment part 16
           ENTRY                   ADDRESS         REF BY
           =====                   =======         ======
           cCmdGetUWord            00103061 
    -------------------------------------------------------------------------
CODE
  Relative segment, address: 00103064 - 00103069 (0x6 bytes), align: 2
  Segment part 262.           Intra module refs:   Segment part 16
           ENTRY                   ADDRESS         REF BY
           =====                   =======         ======
           cCmdGetSWord            00103065 
    -------------------------------------------------------------------------
CODE
  Relative segment, address: 0010306C - 0010306F (0x4 bytes), align: 2
  Segment part 264.           Intra module refs:   Segment part 16
           ENTRY                   ADDRESS         REF BY
           =====                   =======         ======
           cCmdGetUByte            0010306D 
    -------------------------------------------------------------------------
CODE
  Relative segment, address: 00103070 - 00103075 (0x6 bytes), align: 2
  Segment part 266.           Intra module refs:   Segment part 16
           ENTRY                   ADDRESS         REF BY
           =====                   =======         ======
           cCmdGetSByte            00103071 
    -------------------------------------------------------------------------
CODE
  Relative segment, address: 00103078 - 001030B7 (0x40 bytes), align: 2
  Segment part 268.           Intra module refs:   Segment part 16
           ENTRY                   ADDRESS         REF BY
           =====                   =======         ======
           cCmdGetFloat            00103079 
               stack 1 = 00000000 ( 00000008 )
    -------------------------------------------------------------------------
CODE
  Relative segment, address: 001030B8 - 001030CD (0x16 bytes), align: 2
  Segment part 270.           Intra module refs:   cCmdExecuteSetOut
                                                   cCmdIOGetSet
                                                   cCmdInterpOther
           ENTRY                   ADDRESS         REF BY
           =====                   =======         ======
           cCmdGetVal              001030B9 
               stack 1 = 00000000 ( 00000004 )
    -------------------------------------------------------------------------
CODE
  Relative segment, address: 001030D0 - 00103125 (0x56 bytes), align: 2
  Segment part 272.           Intra module refs:   cCmdInterpPolyBinop
                                                   cCmdInterpPolyUnop2
                                                   cCmdInterpUnop2
           ENTRY                   ADDRESS         REF BY
           =====                   =======         ======
           cCmdGetValFlt           001030D1 
               stack 1 = 00000000 ( 00000004 )
    -------------------------------------------------------------------------
CODE
  Relative segment, address: 00103128 - 0010314B (0x24 bytes), align: 2
  Segment part 274.           Intra module refs:   cCmdIOGetSet
                                                   cCmdInterpBinop
                                                   cCmdInterpOther
                                                   cCmdInterpScalarBinop
                                                   cCmdInterpScalarUnop2
                                                   cCmdInterpUnop1
                                                   cCmdInterpUnop2
                                                   cCmdMove
           ENTRY                   ADDRESS         REF BY
           =====                   =======         ======
           cCmdSetScalarValFromDataArg
                                   00103129 
               stack 1 = 00000000 ( 00000004 )
    -------------------------------------------------------------------------
CODE
  Relative segment, address: 0010314C - 00103165 (0x1a bytes), align: 2
  Segment part 276.           Intra module refs:   cCmdExecuteSetOut
                                                   cCmdIOGetSet
                                                   cCmdInterpBinop
                                                   cCmdInterpOther
                                                   cCmdInterpPolyBinop
                                                   cCmdInterpPolyUnop2
           ENTRY                   ADDRESS         REF BY
           =====                   =======         ======
           cCmdSetVal              0010314D 
               stack 1 = 00000000 ( 00000004 )
    -------------------------------------------------------------------------
CODE
  Relative segment, address: 00103168 - 0010316B (0x4 bytes), align: 2
  Segment part 277.           Intra module refs:   cCmdGetScalarValFromDataArg
                                                   cCmdGetVal
                                                   cCmdSetScalarValFromDataArg
                                                   cCmdSetVal
    -------------------------------------------------------------------------
CODE
  Relative segment, address: 0010316C - 001031BB (0x50 bytes), align: 2
  Segment part 279.           Intra module refs:   cCmdInterpUnop2
                                                   cCmdResolveDataArg
           ENTRY                   ADDRESS         REF BY
           =====                   =======         ======
           cCmdDSPtr               0010316D 
               stack 1 = 00000000 ( 00000010 )
    -------------------------------------------------------------------------
CODE
  Relative segment, address: 001031BC - 001031BF (0x4 bytes), align: 2
  Segment part 280.           Intra module refs:   cCmdDSPtr
                                                   cCmdGetScalarValFromDataArg
                                                   cCmdResolveDataArg
                                                   cCmdSetScalarValFromDataArg
    -------------------------------------------------------------------------
CODE
  Relative segment, address: 001031C0 - 001031CF (0x10 bytes), align: 2
  Segment part 282.           Intra module refs:   ?Subroutine172
                                                   ResizeCalibCache
                                                   cCmdDatalogRead
                                                   cCmdDatalogWrite
                                                   cCmdMessageRead
                                                   cCmdMessageWrite
                                                   cCmdWrapColorSensorRead
                                                   cCmdWrapCommBTConnection
                                                   cCmdWrapCommBTWrite
                                                   cCmdWrapCommHSWrite
                                                   cCmdWrapCommLSWrite
                                                   cCmdWrapComputeCalibValue
                                                   cCmdWrapDatalogWrite
                                                   cCmdWrapDrawPicture
                                                   cCmdWrapDrawText
                                                   cCmdWrapFileDelete
                                                   cCmdWrapFileOpenAppend
                                                   cCmdWrapFileOpenRead
                                                   cCmdWrapFileOpenWrite
                                                   cCmdWrapFileRead
                                                   cCmdWrapFileRename
                                                   cCmdWrapFileResolveHandle
                                                   cCmdWrapFileWrite
                                                   cCmdWrapIOMapRead
                                                   cCmdWrapIOMapWrite
                                                   cCmdWrapListFiles
                                                   cCmdWrapMessageRead
                                                   cCmdWrapMessageWrite
                                                   cCmdWrapSoundPlayFile
                                                   cCmdWrapUpdateCalibCacheInfo
           ENTRY                   ADDRESS         REF BY
           =====                   =======         ======
           cCmdDVPtr               001031C1 
    -------------------------------------------------------------------------
CODE
  Relative segment, address: 001031D0 - 001031D3 (0x4 bytes), align: 2
  Segment part 283.           Intra module refs:   cCmdDVPtr
    -------------------------------------------------------------------------
CODE
  Relative segment, address: 001031D4 - 00103229 (0x56 bytes), align: 2
  Segment part 285.           Intra module refs:   cCmdActivateProgram
                                                   cCmdCalcFlattenedSize
                                                   cCmdCompareDSType
                                                   cCmdFlattenToByteArray
                                                   cCmdInflateDSDefaults
                                                   cCmdInterpPolyBinop
                                                   cCmdInterpPolyUnop2
                                                   cCmdInterpUnop2
                                                   cCmdRecursiveCompareAggregates
                                                   cCmdUnflattenFromByteArray
           ENTRY                   ADDRESS         REF BY
           =====                   =======         ======
           cCmdNextDSElement       001031D5 
               stack 1 = 00000000 ( 00000010 )
    -------------------------------------------------------------------------
CODE
  Relative segment, address: 0010322C - 0010322F (0x4 bytes), align: 2
  Segment part 286.           Intra module refs:   cCmdNextDSElement
    -------------------------------------------------------------------------
CODE
  Relative segment, address: 00103230 - 001032B3 (0x84 bytes), align: 2
  Segment part 288.           Intra module refs:   cCmdInterpOther
           ENTRY                   ADDRESS         REF BY
           =====                   =======         ======
           cCmdCompareDSType       00103231 
               stack 1 = 00000000 ( 00000014 )
    -------------------------------------------------------------------------
CODE
  Relative segment, address: 001032B4 - 00103373 (0xc0 bytes), align: 2
  Segment part 290.           Intra module refs:   cCmdInterpOther
                                                   cCmdInterpUnop2
           ENTRY                   ADDRESS         REF BY
           =====                   =======         ======
           cCmdCalcFlattenedSize   001032B5 
               stack 1 = 00000000 ( 0000001C )
    -------------------------------------------------------------------------
CODE
  Relative segment, address: 00103374 - 00103461 (0xee bytes), align: 2
  Segment part 292.           Intra module refs:   cCmdInterpUnop2
           ENTRY                   ADDRESS         REF BY
           =====                   =======         ======
           cCmdFlattenToByteArray
                                   00103375 
               stack 1 = 00000000 ( 00000028 )
    -------------------------------------------------------------------------
CODE
  Relative segment, address: 00103464 - 00103467 (0x4 bytes), align: 2
  Segment part 293.           Intra module refs:   cCmdCalcFlattenedSize
                                                   cCmdCompareDSType
                                                   cCmdFlattenToByteArray
                                                   cCmdNextDSElement
    -------------------------------------------------------------------------
CODE
  Relative segment, address: 00103468 - 00103559 (0xf2 bytes), align: 2
  Segment part 295.           Intra module refs:   cCmdInterpOther
           ENTRY                   ADDRESS         REF BY
           =====                   =======         ======
           cCmdUnflattenFromByteArray
                                   00103469 
               stack 1 = 00000000 ( 00000028 )
    -------------------------------------------------------------------------
CODE
  Relative segment, address: 0010355C - 0010355F (0x4 bytes), align: 2
  Segment part 296.           Intra module refs:   cCmdCalcFlattenedSize
                                                   cCmdFlattenToByteArray
                                                   cCmdUnflattenFromByteArray
    -------------------------------------------------------------------------
CODE
  Relative segment, address: 00103560 - 00103571 (0x12 bytes), align: 2
  Segment part 298.           Intra module refs:   cCmdAllocSubArrayDopeVectors
                                                   cCmdCalcArrayElemSize
                                                   cCmdCalcFlattenedSize
                                                   cCmdCompareDSType
                                                   cCmdFlattenToByteArray
                                                   cCmdFreeSubArrayDopeVectors
                                                   cCmdInflateDSDefaults
                                                   cCmdInterpPolyBinop
                                                   cCmdInterpPolyUnop2
                                                   cCmdInterpUnop2
                                                   cCmdNextDSElement
                                                   cCmdRecursiveCompareAggregates
                                                   cCmdUnflattenFromByteArray
           ENTRY                   ADDRESS         REF BY
           =====                   =======         ======
           cCmdClusterCount        00103561 
    -------------------------------------------------------------------------
CODE
  Relative segment, address: 00103574 - 0010358B (0x18 bytes), align: 2
  Segment part 300.           Intra module refs:   cCmdArrayCount
                                                   cCmdCalcFlattenedSize
                                                   cCmdDSArrayAlloc
                                                   cCmdDSPtr
                                                   cCmdExecuteSetOut
                                                   cCmdFlattenToByteArray
                                                   cCmdFreeSubArrayDopeVectors
                                                   cCmdInterpBinop
                                                   cCmdInterpOther
                                                   cCmdInterpPolyBinop
                                                   cCmdInterpPolyUnop2
                                                   cCmdRecursiveCompareAggregates
                                                   cCmdUnflattenFromByteArray
           ENTRY                   ADDRESS         REF BY
           =====                   =======         ======
           cCmdGetDVIndex          00103575 
               stack 1 = 00000000 ( 00000004 )
    -------------------------------------------------------------------------
CODE
  Relative segment, address: 0010358C - 001035A1 (0x16 bytes), align: 2
  Segment part 302.           Intra module refs:   cCmdDSPtr
                                                   cCmdExecuteSetOut
                                                   cCmdInterpOther
                                                   cCmdInterpPolyBinop
                                                   cCmdInterpPolyUnop2
                                                   cCmdInterpUnop2
                                                   cCmdMove
                                                   cCmdRecursiveCompareAggregates
           ENTRY                   ADDRESS         REF BY
           =====                   =======         ======
           cCmdArrayCount          0010358D 
               stack 1 = 00000000 ( 00000004 )
    -------------------------------------------------------------------------
CODE
  Relative segment, address: 001035A4 - 001035A7 (0x4 bytes), align: 2
  Segment part 303.           Intra module refs:   cCmdArrayCount
    -------------------------------------------------------------------------
CODE
  Relative segment, address: 001035A8 - 001035AB (0x4 bytes), align: 2
  Segment part 306.           Intra module refs:   cCmdClusterCount
                                                   cCmdGetDVIndex
                                                   cCmdUnflattenFromByteArray
    -------------------------------------------------------------------------
CODE
  Relative segment, address: 001035AC - 00103639 (0x8e bytes), align: 2
  Segment part 311.           Intra module refs:   cCmdBinop
                                                   cCmdInterpBinop
                                                   cCmdInterpScalarBinop
                                                   cCmdRecursiveCompareAggregates
                                                   cCmdUnop2
           ENTRY                   ADDRESS         REF BY
           =====                   =======         ======
           cCmdCompare             001035AD 
               stack 1 = 00000000 ( 00000014 )
    -------------------------------------------------------------------------
CODE
  Relative segment, address: 0010363C - 0010369F (0x64 bytes), align: 2
  Segment part 313.           Intra module refs:   cCmdBinopFlt
                                                   cCmdUnop2Flt
           ENTRY                   ADDRESS         REF BY
           =====                   =======         ======
           cCmdCompareFlt          0010363D 
               stack 1 = 00000000 ( 00000004 )
    -------------------------------------------------------------------------
CODE
  Relative segment, address: 001036A0 - 001036E3 (0x44 bytes), align: 2
  Segment part 315.           Intra module refs:   cCmdInterpBinop
                                                   cCmdInterpScalarBinop
           ENTRY                   ADDRESS         REF BY
           =====                   =======         ======
           cCmdCompareAggregates   001036A1 
               stack 1 = 00000000 ( 00000024 )
    -------------------------------------------------------------------------
CODE
  Relative segment, address: 001036E4 - 00103905 (0x222 bytes), align: 2
  Segment part 317.           Intra module refs:   cCmdCompareAggregates
           ENTRY                   ADDRESS         REF BY
           =====                   =======         ======
           cCmdRecursiveCompareAggregates
                                   001036E5 
               stack 1 = 00000000 ( 00000048 )
    -------------------------------------------------------------------------
CODE
  Relative segment, address: 00103908 - 0010390B (0x4 bytes), align: 2
  Segment part 318.           Intra module refs:   cCmdRecursiveCompareAggregates
    -------------------------------------------------------------------------
CODE
  Relative segment, address: 0010390C - 00103A1B (0x110 bytes), align: 2
  Segment part 320.           Intra module refs:   cCmdCtrl
           ENTRY                   ADDRESS         REF BY
           =====                   =======         ======
           cCmdInterpFromClump     0010390D 
               stack 1 = 00000000 ( 00000024 )
    -------------------------------------------------------------------------
CODE
  Relative segment, address: 00103A1C - 00103A1F (0x4 bytes), align: 2
  Segment part 321.           Intra module refs:   cCmdInterpFromClump
    -------------------------------------------------------------------------
CODE
  Relative segment, address: 00103A20 - 00103A23 (0x4 bytes), align: 2
  Segment part 322.           Intra module refs:   cCmdInterpFromClump
    -------------------------------------------------------------------------
CODE
  Relative segment, address: 00103A24 - 00103A27 (0x4 bytes), align: 2
  Segment part 323.           Intra module refs:   cCmdInterpFromClump
    -------------------------------------------------------------------------
CODE
  Relative segment, address: 00103A28 - 00103A2B (0x4 bytes), align: 2
  Segment part 324.           Intra module refs:   cCmdInterpFromClump
    -------------------------------------------------------------------------
CODE
  Relative segment, address: 00103A2C - 00103B03 (0xd8 bytes), align: 2
  Segment part 326.           Intra module refs:   Segment part 20
           ENTRY                   ADDRESS         REF BY
           =====                   =======         ======
           cCmdInterpUnop1         00103A2D 
               stack 1 = 00000000 ( 00000014 )
    -------------------------------------------------------------------------
CODE
  Relative segment, address: 00103B04 - 00103B07 (0x4 bytes), align: 2
  Segment part 327.           Intra module refs:   cCmdInterpFromClump
                                                   cCmdInterpUnop1
    -------------------------------------------------------------------------
CODE
  Relative segment, address: 00103B08 - 00103B0B (0x4 bytes), align: 2
  Segment part 328.           Intra module refs:   cCmdInterpUnop1
    -------------------------------------------------------------------------
DATA_Z
  Relative segment, address: 00008C58 - 00008C67 (0x10 bytes), align: 2
  Segment part 35.            Intra module refs:   cCmdInterpScalarUnop2
           ENTRY                   ADDRESS         REF BY
           =====                   =======         ======
           scalarBrtst             00008C5C 
           scalarNots              00008C58 
           scalarUn2Dispatch       00008C64 
           scalarUn2Other          00008C60 
    -------------------------------------------------------------------------
CODE
  Relative segment, address: 00103B0C - 00103C0F (0x104 bytes), align: 2
  Segment part 330.           Intra module refs:   cCmdRefreshActiveClump
           ENTRY                   ADDRESS         REF BY
           =====                   =======         ======
           cCmdInterpScalarUnop2   00103B0D 
               stack 1 = 00000000 ( 0000001C )
    -------------------------------------------------------------------------
CODE
  Relative segment, address: 00103C10 - 00103C13 (0x4 bytes), align: 2
  Segment part 331.           Intra module refs:   cCmdInterpFromClump
                                                   cCmdInterpScalarUnop2
                                                   cCmdInterpUnop1
    -------------------------------------------------------------------------
CODE
  Relative segment, address: 00103C14 - 00103C17 (0x4 bytes), align: 2
  Segment part 332.           Intra module refs:   cCmdInterpScalarUnop2
    -------------------------------------------------------------------------
CODE
  Relative segment, address: 00103C18 - 00103C1B (0x4 bytes), align: 2
  Segment part 333.           Intra module refs:   cCmdInterpScalarUnop2
                                                   cCmdInterpUnop1
    -------------------------------------------------------------------------
CODE
  Relative segment, address: 00103C1C - 001040CB (0x4b0 bytes), align: 2
  Segment part 335.           Intra module refs:   Segment part 20
                                                   cCmdInterpScalarUnop2
                                                   cCmdRefreshActiveClump
           ENTRY                   ADDRESS         REF BY
           =====                   =======         ======
           cCmdInterpUnop2         00103C1D 
               stack 1 = 00000000 ( 0000005C )
    -------------------------------------------------------------------------
CODE
  Relative segment, address: 001040CC - 001040CF (0x4 bytes), align: 2
  Segment part 336.           Intra module refs:   cCmdInterpUnop2
    -------------------------------------------------------------------------
CODE
  Relative segment, address: 001040D0 - 001040D3 (0x4 bytes), align: 2
  Segment part 337.           Intra module refs:   cCmdInterpUnop2
    -------------------------------------------------------------------------
DATA_Z
  Relative segment, address: 00008C68 - 00008CAF (0x48 bytes), align: 2
  Segment part 36.            Intra module refs:   cCmdInterpUnop2
           ENTRY                   ADDRESS         REF BY
           =====                   =======         ======
           polyUn2Dispatch         00008C68 
           LOCAL                   ADDRESS         
           =====                   =======         
           cCmdInterpUnop2::ArgV   00008C6C 
    -------------------------------------------------------------------------
CODE
  Relative segment, address: 001040D4 - 00104395 (0x2c2 bytes), align: 2
  Segment part 339.           Intra module refs:   cCmdInterpBinop
                                                   cCmdInterpOther
                                                   cCmdInterpUnop2
                                                   cCmdMove
           ENTRY                   ADDRESS         REF BY
           =====                   =======         ======
           cCmdInterpPolyUnop2     001040D5 
               stack 1 = 00000000 ( 00000040 )
    -------------------------------------------------------------------------
CODE
  Relative segment, address: 00104398 - 0010439B (0x4 bytes), align: 2
  Segment part 340.           Intra module refs:   cCmdInterpPolyUnop2
    -------------------------------------------------------------------------
CODE
  Relative segment, address: 0010439C - 0010439F (0x4 bytes), align: 2
  Segment part 341.           Intra module refs:   cCmdInterpPolyUnop2
    -------------------------------------------------------------------------
CODE
  Relative segment, address: 001043A0 - 001043F1 (0x52 bytes), align: 2
  Segment part 343.           Intra module refs:   cCmdInterpPolyUnop2
           ENTRY                   ADDRESS         REF BY
           =====                   =======         ======
           cCmdUnop2               001043A1 
               stack 1 = 00000000 ( 0000000C )
    -------------------------------------------------------------------------
CODE
  Relative segment, address: 001043F4 - 0010446B (0x78 bytes), align: 2
  Segment part 345.           Intra module refs:   cCmdInterpPolyUnop2
           ENTRY                   ADDRESS         REF BY
           =====                   =======         ======
           cCmdUnop2Flt            001043F5 
               stack 1 = 00000000 ( 0000000C )
    -------------------------------------------------------------------------
CODE
  Relative segment, address: 0010446C - 00104535 (0xca bytes), align: 2
  Segment part 347.           Intra module refs:   cCmdInterpBinop
                                                   cCmdInterpScalarBinop
           ENTRY                   ADDRESS         REF BY
           =====                   =======         ======
           cCmdIOGetSet            0010446D 
               stack 1 = 00000000 ( 00000014 )
    -------------------------------------------------------------------------
CODE
  Relative segment, address: 00104538 - 00104755 (0x21e bytes), align: 2
  Segment part 349.           Intra module refs:   cCmdRefreshActiveClump
           ENTRY                   ADDRESS         REF BY
           =====                   =======         ======
           cCmdInterpScalarBinop   00104539 
               stack 1 = 00000000 ( 00000040 )
    -------------------------------------------------------------------------
CODE
  Relative segment, address: 00104758 - 0010475B (0x4 bytes), align: 2
  Segment part 350.           Intra module refs:   cCmdInterpScalarBinop
    -------------------------------------------------------------------------
CODE
  Relative segment, address: 0010475C - 0010475F (0x4 bytes), align: 2
  Segment part 351.           Intra module refs:   cCmdIOGetSet
                                                   cCmdInterpScalarBinop
    -------------------------------------------------------------------------
CODE
  Relative segment, address: 00104760 - 00104B07 (0x3a8 bytes), align: 2
  Segment part 353.           Intra module refs:   Segment part 20
                                                   cCmdInterpScalarBinop
                                                   cCmdRefreshActiveClump
           ENTRY                   ADDRESS         REF BY
           =====                   =======         ======
           cCmdInterpBinop         00104761 
               stack 1 = 00000000 ( 00000044 )
    -------------------------------------------------------------------------
CODE
  Relative segment, address: 00104B08 - 00104B0B (0x4 bytes), align: 2
  Segment part 354.           Intra module refs:   cCmdInterpBinop
    -------------------------------------------------------------------------
CODE
  Relative segment, address: 00104B0C - 00104B0F (0x4 bytes), align: 2
  Segment part 355.           Intra module refs:   cCmdInterpBinop
    -------------------------------------------------------------------------
CODE
  Relative segment, address: 00104B10 - 00104E81 (0x372 bytes), align: 2
  Segment part 357.           Intra module refs:   cCmdInterpBinop
                                                   cCmdInterpScalarBinop
           ENTRY                   ADDRESS         REF BY
           =====                   =======         ======
           cCmdInterpPolyBinop     00104B11 
               stack 1 = 00000000 ( 00000054 )
    -------------------------------------------------------------------------
CODE
  Relative segment, address: 00104E84 - 00104F45 (0xc2 bytes), align: 2
  Segment part 359.           Intra module refs:   cCmdInterpPolyBinop
           ENTRY                   ADDRESS         REF BY
           =====                   =======         ======
           cCmdBinop               00104E85 
               stack 1 = 00000000 ( 00000018 )
    -------------------------------------------------------------------------
CODE
  Relative segment, address: 00104F48 - 00105019 (0xd2 bytes), align: 2
  Segment part 361.           Intra module refs:   cCmdInterpPolyBinop
           ENTRY                   ADDRESS         REF BY
           =====                   =======         ======
           cCmdBinopFlt            00104F49 
               stack 1 = 00000000 ( 00000020 )
    -------------------------------------------------------------------------
CODE
  Relative segment, address: 0010501C - 0010501D (0x2 bytes), align: 2
  Segment part 363.           Intra module refs:   Segment part 20
           ENTRY                   ADDRESS         REF BY
           =====                   =======         ======
           cCmdInterpNoArg         0010501D 
    -------------------------------------------------------------------------
CODE
  Relative segment, address: 00105020, align: 2
  Segment part 365.           Intra module refs:   Segment part 20
           ENTRY                   ADDRESS         REF BY
           =====                   =======         ======
           cCmdInterpShortError    00105021 
    -------------------------------------------------------------------------
CODE
  Relative segment, address: 00105020 - 00105025 (0x6 bytes), align: 2
  Segment part 366.           Intra module refs:   cCmdInterpNoArg
                                                   cCmdInterpShortError
           LOCAL                   ADDRESS         
           =====                   =======         
           ?Subroutine182          00105021 
    -------------------------------------------------------------------------
CODE
  Relative segment, address: 00105028 - 00105071 (0x4a bytes), align: 2
  Segment part 368.           Intra module refs:   Segment part 20
           ENTRY                   ADDRESS         REF BY
           =====                   =======         ======
           cCmdInterpShortSubCall
                                   00105029 
               stack 1 = 00000000 ( 0000000C )
    -------------------------------------------------------------------------
CODE
  Relative segment, address: 00105074 - 00105077 (0x4 bytes), align: 2
  Segment part 369.           Intra module refs:   cCmdInterpShortSubCall
    -------------------------------------------------------------------------
CODE
  Relative segment, address: 00105078 - 0010507B (0x4 bytes), align: 2
  Segment part 370.           Intra module refs:   cCmdInterpShortSubCall
    -------------------------------------------------------------------------
CODE
  Relative segment, address: 0010507C - 0010507F (0x4 bytes), align: 2
  Segment part 371.           Intra module refs:   cCmdInterpShortSubCall
    -------------------------------------------------------------------------
CODE
  Relative segment, address: 00105080 - 0010519F (0x120 bytes), align: 2
  Segment part 373.           Intra module refs:   cCmdInterpOther
                                                   cCmdInterpShortMove
                                                   cCmdInterpUnop2
           ENTRY                   ADDRESS         REF BY
           =====                   =======         ======
           cCmdMove                00105081 
               stack 1 = 00000000 ( 00000020 )
    -------------------------------------------------------------------------
CODE
  Relative segment, address: 001051A0 - 001051A3 (0x4 bytes), align: 2
  Segment part 374.           Intra module refs:   cCmdMove
    -------------------------------------------------------------------------
CODE
  Relative segment, address: 001051A4 - 001051CD (0x2a bytes), align: 2
  Segment part 376.           Intra module refs:   Segment part 20
           ENTRY                   ADDRESS         REF BY
           =====                   =======         ======
           cCmdInterpShortMove     001051A5 
               stack 1 = 00000000 ( 00000004 )
    -------------------------------------------------------------------------
CODE
  Relative segment, address: 001051D0 - 001051F9 (0x2a bytes), align: 2
  Segment part 378.           Intra module refs:   Segment part 20
           ENTRY                   ADDRESS         REF BY
           =====                   =======         ======
           cCmdInterpShortAcquire
                                   001051D1 
               stack 1 = 00000000 ( 00000004 )
    -------------------------------------------------------------------------
CODE
  Relative segment, address: 001051FC - 00105225 (0x2a bytes), align: 2
  Segment part 380.           Intra module refs:   Segment part 20
           ENTRY                   ADDRESS         REF BY
           =====                   =======         ======
           cCmdInterpShortRelease
                                   001051FD 
               stack 1 = 00000000 ( 00000004 )
    -------------------------------------------------------------------------
CODE
  Relative segment, address: 00105228 - 0010522B (0x4 bytes), align: 2
  Segment part 381.           Intra module refs:   cCmdInterpShortAcquire
                                                   cCmdInterpShortMove
                                                   cCmdInterpShortRelease
                                                   cCmdInterpShortSubCall
    -------------------------------------------------------------------------
CODE
  Relative segment, address: 0010522C - 0010534D (0x122 bytes), align: 2
  Segment part 383.           Intra module refs:   cCmdInterpOther
           ENTRY                   ADDRESS         REF BY
           =====                   =======         ======
           cCmdExecuteSetOut       0010522D 
               stack 1 = 00000000 ( 00000034 )
    -------------------------------------------------------------------------
CODE
  Relative segment, address: 00105350 - 00105353 (0x4 bytes), align: 2
  Segment part 384.           Intra module refs:   cCmdExecuteSetOut
                                                   cCmdInterpShortAcquire
                                                   cCmdInterpShortRelease
                                                   cCmdMove
    -------------------------------------------------------------------------
CODE
  Relative segment, address: 00105354 - 00105357 (0x4 bytes), align: 2
  Segment part 385.           Intra module refs:   cCmdExecuteSetOut
    -------------------------------------------------------------------------
CODE
  Relative segment, address: 00105358 - 00105B87 (0x830 bytes), align: 2
  Segment part 387.           Intra module refs:   Segment part 20
           ENTRY                   ADDRESS         REF BY
           =====                   =======         ======
           cCmdInterpOther         00105359 
               stack 1 = 00000000 ( 00000058 )
    -------------------------------------------------------------------------
CODE
  Relative segment, address: 00105B88 - 00105B8B (0x4 bytes), align: 2
  Segment part 388.           Intra module refs:   cCmdInterpOther
    -------------------------------------------------------------------------
DATA_C
  Relative segment, address: 0011A028 - 0011A02F (0x8 bytes), align: 2
  Segment part 37.            Intra module refs:   cCmdLSCheckStatus
           LOCAL                   ADDRESS         
           =====                   =======         
           MapLStoVMStat           0011A028 
    -------------------------------------------------------------------------
CODE
  Relative segment, address: 00105B8C - 00105BDB (0x50 bytes), align: 2
  Segment part 390.           Intra module refs:   ?Subroutine170
                                                   ?Subroutine172
                                                   cCmdHandleRemoteCommands
           ENTRY                   ADDRESS         REF BY
           =====                   =======         ======
           cCmdLSCheckStatus       00105B8D 
               stack 1 = 00000000 ( 00000004 )
    -------------------------------------------------------------------------
CODE
  Relative segment, address: 00105BDC - 00105C15 (0x3a bytes), align: 2
  Segment part 392.           Intra module refs:   ?Subroutine170
                                                   ?Subroutine172
                                                   cCmdHandleRemoteCommands
                                                   cCmdLSRead
           ENTRY                   ADDRESS         REF BY
           =====                   =======         ======
           cCmdLSCalcBytesReady    00105BDD 
               stack 1 = 00000000 ( 00000004 )
    -------------------------------------------------------------------------
CODE
  Relative segment, address: 00105C18 - 00105CEB (0xd4 bytes), align: 2
  Segment part 394.           Intra module refs:   cCmdHandleRemoteCommands
                                                   cCmdWrapCommHSWrite
                                                   cCmdWrapCommLSWrite
           ENTRY                   ADDRESS         REF BY
           =====                   =======         ======
           cCmdLSWrite             00105C19 
               stack 1 = 00000000 ( 0000001C )
    -------------------------------------------------------------------------
CODE
  Relative segment, address: 00105CEC - 00105DA7 (0xbc bytes), align: 2
  Segment part 396.           Intra module refs:   ?Subroutine172
                                                   cCmdHandleRemoteCommands
           ENTRY                   ADDRESS         REF BY
           =====                   =======         ======
           cCmdLSRead              00105CED 
               stack 1 = 00000000 ( 00000018 )
    -------------------------------------------------------------------------
CODE
  Relative segment, address: 00105DA8 - 00105DAB (0x4 bytes), align: 2
  Segment part 397.           Intra module refs:   cCmdLSRead
    -------------------------------------------------------------------------
CODE
  Relative segment, address: 00105DAC - 00105DF7 (0x4c bytes), align: 2
  Segment part 399.           Intra module refs:   Segment part 24
           ENTRY                   ADDRESS         REF BY
           =====                   =======         ======
           cCmdWrapFileOpenRead    00105DAD 
               stack 1 = 00000000 ( 00000010 )
    -------------------------------------------------------------------------
CODE
  Relative segment, address: 00105DF8 - 00105E0F (0x18 bytes), align: 2
  Segment part 401.           Intra module refs:   Segment part 24
           ENTRY                   ADDRESS         REF BY
           =====                   =======         ======
           cCmdWrapFileOpenWrite   00105DF9 
               stack 1 = 00000000 ( 00000010 )
    -------------------------------------------------------------------------
CODE
  Relative segment, address: 00105E10 - 00105E27 (0x18 bytes), align: 2
  Segment part 403.           Intra module refs:   Segment part 24
           ENTRY                   ADDRESS         REF BY
           =====                   =======         ======
           cCmdWrapFileOpenAppend
                                   00105E11 
               stack 1 = 00000000 ( 00000010 )
    -------------------------------------------------------------------------
CODE
  Relative segment, address: 00105E28 - 00105E6D (0x46 bytes), align: 2
  Segment part 404.           Intra module refs:   ResizeCalibCache
                                                   cCmdComputeCalibratedValue
                                                   cCmdDSPtr
                                                   cCmdNextDSElement
                                                   cCmdWrapDrawLine
                                                   cCmdWrapDrawRect
                                                   cCmdWrapFileClose
                                                   cCmdWrapFileOpenAppend
                                                   cCmdWrapFileOpenRead
                                                   cCmdWrapFileOpenWrite
                                                   cCmdWrapFileRead
                                                   cCmdWrapSoundPlayFile
           LOCAL                   ADDRESS         
           =====                   =======         
           ?Subroutine171          00105E29 
    -------------------------------------------------------------------------
CODE
  Relative segment, address: 00105E70 - 00105E73 (0x4 bytes), align: 2
  Segment part 405.           Intra module refs:   ?Subroutine171
                                                   cCmdLSCalcBytesReady
                                                   cCmdLSCheckStatus
                                                   cCmdLSWrite
                                                   cCmdWrapFileOpenRead
    -------------------------------------------------------------------------
CODE
  Relative segment, address: 00105E74 - 00105EC9 (0x56 bytes), align: 2
  Segment part 407.           Intra module refs:   Segment part 24
           ENTRY                   ADDRESS         REF BY
           =====                   =======         ======
           cCmdWrapFileRead        00105E75 
               stack 1 = 00000000 ( 00000010 )
    -------------------------------------------------------------------------
CODE
  Relative segment, address: 00105ECC - 00105EFF (0x34 bytes), align: 2
  Segment part 409.           Intra module refs:   Segment part 24
           ENTRY                   ADDRESS         REF BY
           =====                   =======         ======
           cCmdWrapFileWrite       00105ECD 
               stack 1 = 00000000 ( 0000000C )
    -------------------------------------------------------------------------
CODE
  Relative segment, address: 00105F00 - 00105F51 (0x52 bytes), align: 2
  Segment part 411.           Intra module refs:   Segment part 24
           ENTRY                   ADDRESS         REF BY
           =====                   =======         ======
           cCmdWrapFileClose       00105F01 
               stack 1 = 00000000 ( 00000010 )
    -------------------------------------------------------------------------
CODE
  Relative segment, address: 00105F54 - 00105FB9 (0x66 bytes), align: 2
  Segment part 413.           Intra module refs:   Segment part 24
           ENTRY                   ADDRESS         REF BY
           =====                   =======         ======
           cCmdWrapFileResolveHandle
                                   00105F55 
               stack 1 = 00000000 ( 00000014 )
    -------------------------------------------------------------------------
CODE
  Relative segment, address: 00105FBC - 00105FBF (0x4 bytes), align: 2
  Segment part 414.           Intra module refs:   ?Subroutine171
                                                   cCmdWrapFileClose
                                                   cCmdWrapFileOpenRead
                                                   cCmdWrapFileResolveHandle
    -------------------------------------------------------------------------
CODE
  Relative segment, address: 00105FC0 - 00105FC3 (0x4 bytes), align: 2
  Segment part 415.           Intra module refs:   ?Subroutine171
                                                   cCmdWrapFileOpenRead
                                                   cCmdWrapFileResolveHandle
    -------------------------------------------------------------------------
CODE
  Relative segment, address: 00105FC4 - 00105FC7 (0x4 bytes), align: 2
  Segment part 416.           Intra module refs:   ?Subroutine171
                                                   cCmdWrapFileClose
                                                   cCmdWrapFileOpenRead
                                                   cCmdWrapFileResolveHandle
    -------------------------------------------------------------------------
CODE
  Relative segment, address: 00105FC8 - 00106003 (0x3c bytes), align: 2
  Segment part 418.           Intra module refs:   Segment part 24
           ENTRY                   ADDRESS         REF BY
           =====                   =======         ======
           cCmdWrapFileRename      00105FC9 
               stack 1 = 00000000 ( 00000010 )
    -------------------------------------------------------------------------
CODE
  Relative segment, address: 00106004 - 00106035 (0x32 bytes), align: 2
  Segment part 420.           Intra module refs:   Segment part 24
           ENTRY                   ADDRESS         REF BY
           =====                   =======         ======
           cCmdWrapFileDelete      00106005 
               stack 1 = 00000000 ( 0000000C )
    -------------------------------------------------------------------------
CODE
  Relative segment, address: 00106038 - 00106097 (0x60 bytes), align: 2
  Segment part 422.           Intra module refs:   Segment part 24
           ENTRY                   ADDRESS         REF BY
           =====                   =======         ======
           cCmdWrapSoundPlayFile   00106039 
               stack 1 = 00000000 ( 00000010 )
    -------------------------------------------------------------------------
CODE
  Relative segment, address: 00106098 - 0010609B (0x4 bytes), align: 2
  Segment part 423.           Intra module refs:   cCmdWrapSoundPlayFile
    -------------------------------------------------------------------------
CODE
  Relative segment, address: 0010609C - 001060EB (0x50 bytes), align: 2
  Segment part 425.           Intra module refs:   Segment part 24
           ENTRY                   ADDRESS         REF BY
           =====                   =======         ======
           cCmdWrapSoundPlayTone   0010609D 
               stack 1 = 00000000 ( 00000008 )
    -------------------------------------------------------------------------
CODE
  Relative segment, address: 001060EC - 00106107 (0x1c bytes), align: 2
  Segment part 427.           Intra module refs:   Segment part 24
           ENTRY                   ADDRESS         REF BY
           =====                   =======         ======
           cCmdWrapSoundGetState   001060ED 
    -------------------------------------------------------------------------
CODE
  Relative segment, address: 00106108 - 00106131 (0x2a bytes), align: 2
  Segment part 429.           Intra module refs:   Segment part 24
           ENTRY                   ADDRESS         REF BY
           =====                   =======         ======
           cCmdWrapSoundSetState   00106109 
    -------------------------------------------------------------------------
CODE
  Relative segment, address: 00106134 - 0010619F (0x6c bytes), align: 2
  Segment part 431.           Intra module refs:   Segment part 24
           ENTRY                   ADDRESS         REF BY
           =====                   =======         ======
           cCmdWrapReadButton      00106135 
               stack 1 = 00000000 ( 0000000C )
    -------------------------------------------------------------------------
CODE
  Relative segment, address: 001061A0 - 001061A3 (0x4 bytes), align: 2
  Segment part 432.           Intra module refs:   cCmdWrapFileClose
                                                   cCmdWrapFileDelete
                                                   cCmdWrapFileRead
                                                   cCmdWrapFileRename
                                                   cCmdWrapFileWrite
                                                   cCmdWrapReadButton
                                                   cCmdWrapSoundGetState
                                                   cCmdWrapSoundPlayTone
                                                   cCmdWrapSoundSetState
    -------------------------------------------------------------------------
CODE
  Relative segment, address: 001061A4 - 001061D9 (0x36 bytes), align: 2
  Segment part 434.           Intra module refs:   Segment part 24
           ENTRY                   ADDRESS         REF BY
           =====                   =======         ======
           cCmdWrapCommLSWrite     001061A5 
               stack 1 = 00000000 ( 00000014 )
    -------------------------------------------------------------------------
CODE
  Relative segment, address: 001061DC - 001061DF (0x4 bytes), align: 2
  Segment part 436.           Intra module refs:   Segment part 24
           ENTRY                   ADDRESS         REF BY
           =====                   =======         ======
           cCmdWrapCommLSCheckStatus
                                   001061DD 
               stack 1 = 00000000 ( 0000000C )
    -------------------------------------------------------------------------
CODE
  Relative segment, address: 001061E0 - 001061E3 (0x4 bytes), align: 2
  Segment part 438.           Intra module refs:   Segment part 24
           ENTRY                   ADDRESS         REF BY
           =====                   =======         ======
           cCmdWrapCommLSRead      001061E1 
               stack 1 = 00000000 ( 00000014 )
    -------------------------------------------------------------------------
CODE
  Relative segment, address: 001061E4 - 00106217 (0x34 bytes), align: 2
  Segment part 440.           Intra module refs:   Segment part 24
           ENTRY                   ADDRESS         REF BY
           =====                   =======         ======
           cCmdWrapRandomNumber    001061E5 
               stack 1 = 00000000 ( 0000000C )
    -------------------------------------------------------------------------
DATA_Z
  Relative segment, address: 0000BAC2 - 0000BAC2 (0x1 bytes), align: 0
  Segment part 38.            Intra module refs:   cCmdWrapRandomNumber
           LOCAL                   ADDRESS         
           =====                   =======         
           cCmdWrapRandomNumber::count
                                   0000BAC2 
    -------------------------------------------------------------------------
CODE
  Relative segment, address: 00106218 - 00106223 (0xc bytes), align: 2
  Segment part 442.           Intra module refs:   Segment part 24
           ENTRY                   ADDRESS         REF BY
           =====                   =======         ======
           cCmdWrapGetStartTick    00106219 
    -------------------------------------------------------------------------
CODE
  Relative segment, address: 00106224 - 0010625D (0x3a bytes), align: 2
  Segment part 444.           Intra module refs:   Segment part 24
           ENTRY                   ADDRESS         REF BY
           =====                   =======         ======
           cCmdWrapMessageWrite    00106225 
               stack 1 = 00000000 ( 0000000C )
    -------------------------------------------------------------------------
CODE
  Relative segment, address: 00106260 - 00106263 (0x4 bytes), align: 2
  Segment part 445.           Intra module refs:   cCmdWrapCommLSWrite
                                                   cCmdWrapMessageWrite
    -------------------------------------------------------------------------
CODE
  Relative segment, address: 00106264 - 001062F9 (0x96 bytes), align: 2
  Segment part 447.           Intra module refs:   Segment part 24
           ENTRY                   ADDRESS         REF BY
           =====                   =======         ======
           cCmdWrapColorSensorRead
                                   00106265 
               stack 1 = 00000000 ( 00000020 )
    -------------------------------------------------------------------------
CODE
  Relative segment, address: 001062FC - 0010633D (0x42 bytes), align: 2
  Segment part 449.           Intra module refs:   cCmdWrapCommBTCheckStatus
                                                   cCmdWrapMessageRead
           ENTRY                   ADDRESS         REF BY
           =====                   =======         ======
           cCmdBTCheckStatus       001062FD 
               stack 1 = 00000000 ( 00000004 )
    -------------------------------------------------------------------------
CODE
  Relative segment, address: 00106340 - 00106343 (0x4 bytes), align: 2
  Segment part 450.           Intra module refs:   cCmdBTCheckStatus
    -------------------------------------------------------------------------
CODE
  Relative segment, address: 00106344 - 0010644B (0x108 bytes), align: 2
  Segment part 452.           Intra module refs:   Segment part 24
           ENTRY                   ADDRESS         REF BY
           =====                   =======         ======
           cCmdWrapMessageRead     00106345 
               stack 1 = 00000000 ( 00000028 )
    -------------------------------------------------------------------------
CODE
  Relative segment, address: 0010644C - 0010644F (0x4 bytes), align: 2
  Segment part 453.           Intra module refs:   cCmdBTCheckStatus
                                                   cCmdWrapMessageRead
    -------------------------------------------------------------------------
CODE
  Relative segment, address: 00106450 - 00106461 (0x12 bytes), align: 2
  Segment part 455.           Intra module refs:   Segment part 24
           ENTRY                   ADDRESS         REF BY
           =====                   =======         ======
           cCmdWrapCommBTCheckStatus
                                   00106451 
               stack 1 = 00000000 ( 00000008 )
    -------------------------------------------------------------------------
CODE
  Relative segment, address: 00106464 - 001064D7 (0x74 bytes), align: 2
  Segment part 457.           Intra module refs:   Segment part 24
           ENTRY                   ADDRESS         REF BY
           =====                   =======         ======
           cCmdWrapCommBTWrite     00106465 
               stack 1 = 00000000 ( 0000001C )
    -------------------------------------------------------------------------
CODE
  Relative segment, address: 001064D8 - 001064DB (0x4 bytes), align: 2
  Segment part 458.           Intra module refs:   cCmdWrapCommBTWrite
    -------------------------------------------------------------------------
CODE
  Relative segment, address: 001064DC - 001064DF (0x4 bytes), align: 2
  Segment part 459.           Intra module refs:   cCmdWrapCommBTWrite
    -------------------------------------------------------------------------
CODE
  Relative segment, address: 001064E0 - 001064E3 (0x4 bytes), align: 2
  Segment part 460.           Intra module refs:   cCmdBTCheckStatus
                                                   cCmdWrapCommBTWrite
    -------------------------------------------------------------------------
CODE
  Relative segment, address: 001064E4 - 001064E9 (0x6 bytes), align: 2
  Segment part 462.           Intra module refs:   Segment part 24
           ENTRY                   ADDRESS         REF BY
           =====                   =======         ======
           cCmdWrapCommBTRead      001064E5 
    -------------------------------------------------------------------------
CODE
  Relative segment, address: 001064EC - 00106513 (0x28 bytes), align: 2
  Segment part 464.           Intra module refs:   Segment part 24
           ENTRY                   ADDRESS         REF BY
           =====                   =======         ======
           cCmdWrapKeepAlive       001064ED 
               stack 1 = 00000000 ( 00000004 )
    -------------------------------------------------------------------------
CODE
  Relative segment, address: 00106514 - 001065F9 (0xe6 bytes), align: 2
  Segment part 466.           Intra module refs:   Segment part 24
           ENTRY                   ADDRESS         REF BY
           =====                   =======         ======
           cCmdWrapIOMapRead       00106515 
               stack 1 = 00000000 ( 00000080 )
    -------------------------------------------------------------------------
CODE
  Relative segment, address: 001065FC - 001065FF (0x4 bytes), align: 2
  Segment part 467.           Intra module refs:   cCmdBTCheckStatus
                                                   cCmdWrapCommBTWrite
                                                   cCmdWrapIOMapRead
                                                   cCmdWrapKeepAlive
    -------------------------------------------------------------------------
CODE
  Relative segment, address: 00106600 - 0010669F (0xa0 bytes), align: 2
  Segment part 469.           Intra module refs:   Segment part 24
           ENTRY                   ADDRESS         REF BY
           =====                   =======         ======
           cCmdWrapIOMapWrite      00106601 
               stack 1 = 00000000 ( 00000080 )
    -------------------------------------------------------------------------
CODE
  Relative segment, address: 001066A0 - 001066D5 (0x36 bytes), align: 2
  Segment part 471.           Intra module refs:   Segment part 24
           ENTRY                   ADDRESS         REF BY
           =====                   =======         ======
           cCmdWrapDatalogWrite    001066A1 
               stack 1 = 00000000 ( 0000000C )
    -------------------------------------------------------------------------
CODE
  Relative segment, address: 001066D8 - 001066E3 (0xc bytes), align: 2
  Segment part 473.           Intra module refs:   Segment part 24
           ENTRY                   ADDRESS         REF BY
           =====                   =======         ======
           cCmdWrapDatalogGetTimes
                                   001066D9 
    -------------------------------------------------------------------------
CODE
  Relative segment, address: 001066E4 - 001066E9 (0x6 bytes), align: 2
  Segment part 474.           Intra module refs:   cCmdWrapDatalogGetTimes
                                                   cCmdWrapGetStartTick
           LOCAL                   ADDRESS         
           =====                   =======         
           ?Subroutine183          001066E5 
    -------------------------------------------------------------------------
CODE
  Relative segment, address: 001066EC - 001066EF (0x4 bytes), align: 2
  Segment part 475.           Intra module refs:   cCmdWrapDatalogGetTimes
    -------------------------------------------------------------------------
CODE
  Relative segment, address: 001066F0 - 00106727 (0x38 bytes), align: 2
  Segment part 477.           Intra module refs:   Segment part 24
           ENTRY                   ADDRESS         REF BY
           =====                   =======         ======
           cCmdWrapSetSleepTimeout
                                   001066F1 
               stack 1 = 00000000 ( 00000004 )
    -------------------------------------------------------------------------
CODE
  Relative segment, address: 00106728 - 0010672D (0x6 bytes), align: 2
  Segment part 478.           Intra module refs:   cCmdSchedDependent
                                                   cCmdWrapSetSleepTimeout
           LOCAL                   ADDRESS         
           =====                   =======         
           ?Subroutine181          00106729 
    -------------------------------------------------------------------------
CODE
  Relative segment, address: 00106730 - 00106733 (0x4 bytes), align: 2
  Segment part 479.           Intra module refs:   cCmdWrapKeepAlive
                                                   cCmdWrapSetSleepTimeout
    -------------------------------------------------------------------------
CODE
  Relative segment, address: 00106734 - 00106769 (0x36 bytes), align: 2
  Segment part 481.           Intra module refs:   Segment part 24
           ENTRY                   ADDRESS         REF BY
           =====                   =======         ======
           cCmdWrapCommHSWrite     00106735 
               stack 1 = 00000000 ( 00000014 )
    -------------------------------------------------------------------------
CODE
  Relative segment, address: 0010676C - 0010676F (0x4 bytes), align: 2
  Segment part 482.           Intra module refs:   cCmdWrapCommHSWrite
                                                   cCmdWrapDatalogWrite
                                                   cCmdWrapIOMapWrite
    -------------------------------------------------------------------------
CODE
  Relative segment, address: 00106770 - 00106773 (0x4 bytes), align: 2
  Segment part 484.           Intra module refs:   Segment part 24
           ENTRY                   ADDRESS         REF BY
           =====                   =======         ======
           cCmdWrapCommHSCheckStatus
                                   00106771 
               stack 1 = 00000000 ( 0000000C )
    -------------------------------------------------------------------------
CODE
  Relative segment, address: 00106774 - 00106795 (0x22 bytes), align: 2
  Segment part 485.           Intra module refs:   cCmdAcquireMutex
                                                   cCmdDatalogGetSize
                                                   cCmdGetCalibrationIndex
                                                   cCmdInterpShortSubCall
                                                   cCmdMessageGetSize
                                                   cCmdResolveDataArg
                                                   cCmdResolveIODataArg
                                                   cCmdWrapCommHSCheckStatus
                                                   cCmdWrapCommLSCheckStatus
                                                   cCmdWrapDatalogWrite
                                                   cCmdWrapDrawPoint
                                                   cCmdWrapDrawText
                                                   cCmdWrapFileDelete
                                                   cCmdWrapFileWrite
                                                   cCmdWrapMessageWrite
                                                   cCmdWrapRandomNumber
                                                   cCmdWrapReadButton
                                                   cCmdWrapWriteSemData
           LOCAL                   ADDRESS         
           =====                   =======         
           ?Subroutine170          00106775 
    -------------------------------------------------------------------------
CODE
  Relative segment, address: 00106798 - 0010679B (0x4 bytes), align: 2
  Segment part 487.           Intra module refs:   Segment part 24
           ENTRY                   ADDRESS         REF BY
           =====                   =======         ======
           cCmdWrapCommHSRead      00106799 
               stack 1 = 00000000 ( 00000014 )
    -------------------------------------------------------------------------
CODE
  Relative segment, address: 0010679C - 001067FD (0x62 bytes), align: 2
  Segment part 488.           Intra module refs:   cCmdActivateProgram
                                                   cCmdAllocDopeVector
                                                   cCmdAllocSubArrayDopeVectors
                                                   cCmdBinop
                                                   cCmdCompare
                                                   cCmdCompareDSType
                                                   cCmdExecuteSetOut
                                                   cCmdFlattenToByteArray
                                                   cCmdFreeSubArrayDopeVectors
                                                   cCmdGrowDopeVectorArray
                                                   cCmdHandleRemoteCommands
                                                   cCmdInterpBinop
                                                   cCmdInterpFromClump
                                                   cCmdInterpOther
                                                   cCmdInterpPolyBinop
                                                   cCmdInterpPolyUnop2
                                                   cCmdInterpScalarBinop
                                                   cCmdInterpUnop1
                                                   cCmdInterpUnop2
                                                   cCmdMessageRead
                                                   cCmdRecursiveCompareAggregates
                                                   cCmdResolveValue
                                                   cCmdSleepClump
                                                   cCmdUnflattenFromByteArray
                                                   cCmdWrapCommBTWrite
                                                   cCmdWrapCommHSRead
                                                   cCmdWrapCommHSWrite
                                                   cCmdWrapCommLSRead
                                                   cCmdWrapCommLSWrite
                                                   cCmdWrapDrawCircle
                                                   cCmdWrapDrawPicture
                                                   cCmdWrapFileResolveHandle
                                                   cCmdWrapIOMapRead
                                                   cCmdWrapIOMapWrite
                                                   cCmdWrapListFiles
           LOCAL                   ADDRESS         
           =====                   =======         
           ?Subroutine172          0010679D 
    -------------------------------------------------------------------------
CODE
  Relative segment, address: 00106800 - 00106847 (0x48 bytes), align: 2
  Segment part 490.           Intra module refs:   Segment part 24
           ENTRY                   ADDRESS         REF BY
           =====                   =======         ======
           cCmdWrapCommBTOnOff     00106801 
               stack 1 = 00000000 ( 00000018 )
    -------------------------------------------------------------------------
CODE
  Relative segment, address: 00106848 - 0010684F (0x8 bytes), align: 2
  Segment part 491.           Intra module refs:   cCmdWrapCommBTOnOff
                                                   cCmdWrapFileRename
           LOCAL                   ADDRESS         
           =====                   =======         
           ?Subroutine184          00106849 
    -------------------------------------------------------------------------
CODE
  Relative segment, address: 00106850 - 001068A3 (0x54 bytes), align: 2
  Segment part 493.           Intra module refs:   Segment part 24
           ENTRY                   ADDRESS         REF BY
           =====                   =======         ======
           cCmdWrapCommBTConnection
                                   00106851 
               stack 1 = 00000000 ( 00000020 )
    -------------------------------------------------------------------------
CODE
  Relative segment, address: 001068A4 - 001068A7 (0x4 bytes), align: 2
  Segment part 494.           Intra module refs:   cCmdWrapCommBTConnection
                                                   cCmdWrapCommBTOnOff
                                                   cCmdWrapSetSleepTimeout
    -------------------------------------------------------------------------
CODE
  Relative segment, address: 001068A8 - 001068C1 (0x1a bytes), align: 2
  Segment part 496.           Intra module refs:   Segment part 24
           ENTRY                   ADDRESS         REF BY
           =====                   =======         ======
           cCmdWrapReadSemData     001068A9 
               stack 1 = 00000000 ( 00000004 )
    -------------------------------------------------------------------------
CODE
  Relative segment, address: 001068C4 - 001068FD (0x3a bytes), align: 2
  Segment part 498.           Intra module refs:   Segment part 24
           ENTRY                   ADDRESS         REF BY
           =====                   =======         ======
           cCmdWrapWriteSemData    001068C5 
               stack 1 = 00000000 ( 0000000C )
    -------------------------------------------------------------------------
CODE
  Relative segment, address: 00106900 - 00106903 (0x4 bytes), align: 2
  Segment part 499.           Intra module refs:   cCmdWrapIOMapWrite
                                                   cCmdWrapReadSemData
                                                   cCmdWrapWriteSemData
    -------------------------------------------------------------------------
CODE
  Relative segment, address: 00106904 - 0010691F (0x1c bytes), align: 2
  Segment part 501.           Intra module refs:   Segment part 24
           ENTRY                   ADDRESS         REF BY
           =====                   =======         ======
           cCmdWrapUpdateCalibCacheInfo
                                   00106905 
               stack 1 = 00000000 ( 00000008 )
    -------------------------------------------------------------------------
CODE
  Relative segment, address: 00106920 - 0010692D (0xe bytes), align: 2
  Segment part 502.           Intra module refs:   cCmdBTGetDeviceType
                                                   cCmdGetFloat
                                                   cCmdReleaseMutex
                                                   cCmdUnop2
                                                   cCmdUnop2Flt
                                                   cCmdWrapCommBTCheckStatus
                                                   cCmdWrapSetScreenMode
                                                   cCmdWrapSoundPlayTone
                                                   cCmdWrapUpdateCalibCacheInfo
           LOCAL                   ADDRESS         
           =====                   =======         
           ?Subroutine174          00106921 
    -------------------------------------------------------------------------
CODE
  Relative segment, address: 00106930 - 0010695B (0x2c bytes), align: 2
  Segment part 504.           Intra module refs:   Segment part 24
           ENTRY                   ADDRESS         REF BY
           =====                   =======         ======
           cCmdWrapComputeCalibValue
                                   00106931 
               stack 1 = 00000000 ( 0000000C )
    -------------------------------------------------------------------------
DATA_I
  Relative segment, address: 00000100 - 0000014B (0x4c bytes), align: 2
  Segment part 13.            Intra module refs:   Segment part 100
                                                   Segment part 129
                                                   Segment part 232
                                                   Segment part 323
                                                   Segment part 397
                                                   Segment part 405
                                                   Segment part 423
                                                   Segment part 432
                                                   Segment part 467
                                                   Segment part 49
                                                   Segment part 494
                                                   Segment part 499
                                                   Segment part 516
                                                   Segment part 521
                                                   Segment part 54
                                                   Segment part 59
                                                   Segment part 61
                                                   Segment part 77
                                                   Segment part 82
                                                   Segment part 92
                                                   Segment part 99
                                                   cCmdActivateProgram
                                                   cCmdHandleRemoteCommands
                                                   cCmdWrapDrawPicture
                                                   cCmdWrapMessageRead
           ENTRY                   ADDRESS         REF BY
           =====                   =======         ======
           gCalibCacheArray        00000148 
           gCalibCacheArrayDVIdx   0000010C 
           gCalibCacheCnt          0000010A 
           gRequestSemData         00000109 
           gUsageSemData           00000108 
           gpImgData               00000118 
           gpPassedImgVars         00000144 
           LOCAL                   ADDRESS         
           =====                   =======         
           RemoteMsgReadPacket     00000100 
           gInstrsToExecute        00000114 
           pHeaders                00000110 
    -------------------------------------------------------------------------
DATA_I
  Relative segment, address: 0000014C - 000001BF (0x74 bytes), align: 2
  Segment part 15.            Intra module refs:   Segment part 277
                                                   Segment part 331
                                                   Segment part 350
                                                   Segment part 381
                                                   cCmdInterpBinop
                                                   cCmdInterpOther
                                                   cCmdInterpUnop2
           ENTRY                   ADDRESS         REF BY
           =====                   =======         ======
           PolyScalarCmp           000001AC 
           polyBinopDispatch       000001BC 
           polyPolyCmp             000001B0 
           recursiveCmp            000001A8 
           scalarBinopDispatch     000001B8 
           scalarCmp               000001A0 
           scalarFloatCmp          000001A4 
           scalarOther             000001B4 
           LOCAL                   ADDRESS         
           =====                   =======         
           GetProcArray            00000150 
           SetProcArray            0000017C 
           gPCDelta                0000014C 
    -------------------------------------------------------------------------
DATA_I
  Relative segment, address: 000001C0 - 0000021F (0x60 bytes), align: 2
  Segment part 19.            Intra module refs:   Segment part 117
                                                   Segment part 324
           LOCAL                   ADDRESS         
           =====                   =======         
           InterpFuncs             000001C0 
           ShortInterpFuncs        00000200 
    -------------------------------------------------------------------------
DATA_I
  Relative segment, address: 00000220 - 0000025F (0x40 bytes), align: 2
  Segment part 21.            Intra module refs:   Segment part 113
                                                   Segment part 191
                                                   Segment part 296
                                                   Segment part 341
                                                   Segment part 374
           ENTRY                   ADDRESS         REF BY
           =====                   =======         ======
           TC_Size_Table           00000220 
           moveArrInt              00000258 
           moveDiffInt             00000250 
           moveFloat               00000254 
           moveOther               0000025C 
           moveSameInt             0000024C 
    -------------------------------------------------------------------------
DATA_I
  Relative segment, address: 00000260 - 0000031F (0xc0 bytes), align: 2
  Segment part 23.            Intra module refs:   cCmdInterpUnop2
           LOCAL                   ADDRESS         
           =====                   =======         
           SysCallFuncs            00000260 
    -------------------------------------------------------------------------
DATA_I
  Relative segment, address: 00000320 - 00000337 (0x18 bytes), align: 2
  Segment part 25.            Intra module refs:   Segment part 30
           ENTRY                   ADDRESS         REF BY
           =====                   =======         ======
           IO_TYPES_IN             00000320 
    -------------------------------------------------------------------------
DATA_I
  Relative segment, address: 00000338 - 00000367 (0x30 bytes), align: 2
  Segment part 27.            Intra module refs:   Segment part 30
           ENTRY                   ADDRESS         REF BY
           =====                   =======         ======
           IO_TYPES_OUT            00000338 
    -------------------------------------------------------------------------
DATA_I
  Relative segment, address: 00000368 - 00000377 (0x10 bytes), align: 2
  Segment part 29.            Intra module refs:   Segment part 240
                                                   Segment part 385
           ENTRY                   ADDRESS         REF BY
           =====                   =======         ======
           IO_PTRS                 00000370 
           IO_TYPES                00000368 
    -------------------------------------------------------------------------
CODE
  Relative segment, address: 0010695C - 0010698B (0x30 bytes), align: 2
  Segment part 506.           Intra module refs:   cCmdComputeCalibratedValue
                                                   cCmdUpdateCalibrationCache
           ENTRY                   ADDRESS         REF BY
           =====                   =======         ======
           cCmdGetCalibrationIndex
                                   0010695D 
               stack 1 = 00000000 ( 0000000C )
    -------------------------------------------------------------------------
CODE
  Relative segment, address: 0010698C - 001069E5 (0x5a bytes), align: 2
  Segment part 508.           Intra module refs:   cCmdWrapComputeCalibValue
           ENTRY                   ADDRESS         REF BY
           =====                   =======         ======
           cCmdComputeCalibratedValue
                                   0010698D 
               stack 1 = 00000000 ( 00000010 )
    -------------------------------------------------------------------------
CODE
  Relative segment, address: 001069E8 - 00106A33 (0x4c bytes), align: 2
  Segment part 510.           Intra module refs:   cCmdUpdateCalibrationCache
           ENTRY                   ADDRESS         REF BY
           =====                   =======         ======
           ResizeCalibCache        001069E9 
               stack 1 = 00000000 ( 00000010 )
    -------------------------------------------------------------------------
CODE
  Relative segment, address: 00106A34 - 00106A37 (0x4 bytes), align: 2
  Segment part 511.           Intra module refs:   ResizeCalibCache
    -------------------------------------------------------------------------
CODE
  Relative segment, address: 00106A38 - 00106A83 (0x4c bytes), align: 2
  Segment part 513.           Intra module refs:   cCmdLoadCalibrationFiles
                                                   cCmdWrapUpdateCalibCacheInfo
           ENTRY                   ADDRESS         REF BY
           =====                   =======         ======
           cCmdUpdateCalibrationCache
                                   00106A39 
               stack 1 = 00000000 ( 00000018 )
    -------------------------------------------------------------------------
CODE
  Relative segment, address: 00106A84 - 00106B9B (0x118 bytes), align: 2
  Segment part 515.           Intra module refs:   cCmdActivateProgram
           ENTRY                   ADDRESS         REF BY
           =====                   =======         ======
           cCmdLoadCalibrationFiles
                                   00106A85 
               stack 1 = 00000000 ( 0000003C )
    -------------------------------------------------------------------------
CODE
  Relative segment, address: 00106B9C - 00106B9F (0x4 bytes), align: 2
  Segment part 516.           Intra module refs:   ResizeCalibCache
                                                   cCmdComputeCalibratedValue
                                                   cCmdGetCalibrationIndex
                                                   cCmdLoadCalibrationFiles
                                                   cCmdUpdateCalibrationCache
    -------------------------------------------------------------------------
CODE
  Relative segment, address: 00106BA0 - 00106BA3 (0x4 bytes), align: 2
  Segment part 517.           Intra module refs:   ResizeCalibCache
                                                   cCmdLoadCalibrationFiles
    -------------------------------------------------------------------------
CODE
  Relative segment, address: 00106BA4 - 00106CE1 (0x13e bytes), align: 2
  Segment part 519.           Intra module refs:   Segment part 24
           ENTRY                   ADDRESS         REF BY
           =====                   =======         ======
           cCmdWrapListFiles       00106BA5 
               stack 1 = 00000000 ( 0000003C )
    -------------------------------------------------------------------------
CODE
  Relative segment, address: 00106CE4 - 00106CE7 (0x4 bytes), align: 2
  Segment part 520.           Intra module refs:   cCmdWrapListFiles
    -------------------------------------------------------------------------
CODE
  Relative segment, address: 00106CE8 - 00106CEB (0x4 bytes), align: 2
  Segment part 521.           Intra module refs:   cCmdWrapListFiles
    -------------------------------------------------------------------------
DATA_ID
  Relative segment, address: 001198AC - 001198F7 (0x4c bytes), align: 2
  Segment part 14.            Intra module refs:   Segment part 13
    -------------------------------------------------------------------------
DATA_ID
  Relative segment, address: 001198F8 - 0011996B (0x74 bytes), align: 2
  Segment part 16.            Intra module refs:   Segment part 15
    -------------------------------------------------------------------------
DATA_ID
  Relative segment, address: 0011996C - 001199CB (0x60 bytes), align: 2
  Segment part 20.            Intra module refs:   Segment part 19
    -------------------------------------------------------------------------
DATA_ID
  Relative segment, address: 001199CC - 00119A0B (0x40 bytes), align: 2
  Segment part 22.            Intra module refs:   Segment part 21
    -------------------------------------------------------------------------
DATA_ID
  Relative segment, address: 00119A0C - 00119ACB (0xc0 bytes), align: 2
  Segment part 24.            Intra module refs:   SysCallFuncs
    -------------------------------------------------------------------------
DATA_ID
  Relative segment, address: 00119ACC - 00119AE3 (0x18 bytes), align: 2
  Segment part 26.            Intra module refs:   IO_TYPES_IN
    -------------------------------------------------------------------------
DATA_ID
  Relative segment, address: 00119AE4 - 00119B13 (0x30 bytes), align: 2
  Segment part 28.            Intra module refs:   IO_TYPES_OUT
    -------------------------------------------------------------------------
DATA_ID
  Relative segment, address: 00119B14 - 00119B23 (0x10 bytes), align: 2
  Segment part 30.            Intra module refs:   Segment part 29
    -------------------------------------------------------------------------
INITTAB
  Relative segment, address: 00119894 - 0011989F (0xc bytes), align: 2
  Segment part 566. ROOT.
           ENTRY                   ADDRESS         REF BY
           =====                   =======         ======
           ?init?tab?DATA_I        00119894 

    *************************************************************************

  FILE NAME : C:\Documents and Settings\Lane Kolbly\My Documents\GitHub\blindnxt\AT91SAM7S256\SAM7S256\Object\c_comm.r79
  PROGRAM MODULE, NAME : c_comm

  SEGMENTS IN THE MODULE
  ======================
DATA_C
  Relative segment, address: 0011A030 - 0011A037 (0x8 bytes), align: 2
  Segment part 3.             Intra module refs:   cCommCtrl
    -------------------------------------------------------------------------
DATA_C
  Relative segment, address: 0011A038 - 0011A04F (0x18 bytes), align: 2
  Segment part 4.             Intra module refs:   cCommCheckSysFileType
    -------------------------------------------------------------------------
DATA_C
  Relative segment, address: 0011A050 - 0011A063 (0x14 bytes), align: 2
  Segment part 5.             Intra module refs:   cCommInterpreteCmd
           ENTRY                   ADDRESS         REF BY
           =====                   =======         ======
           BootString              0011A050 
    -------------------------------------------------------------------------
DATA_C
  Relative segment, address: 0011A064 - 0011A073 (0x10 bytes), align: 2
  Segment part 6.             Intra module refs:   cCommUpdateBt
           ENTRY                   ADDRESS         REF BY
           =====                   =======         ======
           NoName                  0011A064 
    -------------------------------------------------------------------------
DATA_Z
  Relative segment, address: 00008CB0 - 0000987F (0xbd0 bytes), align: 2
  Segment part 7.             Intra module refs:   Segment part 107
                                                   Segment part 114
                                                   Segment part 115
                                                   Segment part 116
                                                   Segment part 117
                                                   Segment part 118
                                                   Segment part 119
                                                   Segment part 121
                                                   Segment part 122
                                                   Segment part 136
                                                   Segment part 15
                                                   Segment part 34
                                                   Segment part 40
                                                   Segment part 47
                                                   Segment part 48
                                                   Segment part 55
                                                   Segment part 73
                                                   Segment part 90
                                                   cComm
                                                   cCommBtCmdInterpreter
                                                   cCommInterprete
                                                   cCommInterpreteCmd
                                                   cCommPinCode
                                                   cCommUpdateBt
           LOCAL                   ADDRESS         
           =====                   =======         
           IOMapComm               00008CB0 
           VarsComm                00009418 
    -------------------------------------------------------------------------
DATA_Z
  Relative segment, address: 00009880 - 00009883 (0x4 bytes), align: 2
  Segment part 8.             Intra module refs:   Segment part 133
                                                   Segment part 23
                                                   Segment part 31
                                                   Segment part 35
                                                   Segment part 54
                                                   cCommInterpreteCmd
                                                   cCommUpdateBt
           LOCAL                   ADDRESS         
           =====                   =======         
           pHeaders                00009880 
    -------------------------------------------------------------------------
DATA_C
  Relative segment, address: 0011A074 - 0011A0A7 (0x34 bytes), align: 2
  Segment part 9.
           ENTRY                   ADDRESS         REF BY
           =====                   =======         ======
           cComm                   0011A074        Segment part 5 (m_sched)
    -------------------------------------------------------------------------
CODE
  Relative segment, address: 00106CEC - 00106DA7 (0xbc bytes), align: 2
  Segment part 11.            Intra module refs:   cComm
           ENTRY                   ADDRESS         REF BY
           =====                   =======         ======
           cCommInit               00106CED 
               stack 1 = 00000000 ( 00000014 )
    -------------------------------------------------------------------------
CODE
  Relative segment, address: 00106DA8 - 00106DAB (0x4 bytes), align: 2
  Segment part 12.            Intra module refs:   cCommInit
    -------------------------------------------------------------------------
CODE
  Relative segment, address: 00106DAC - 00106FB3 (0x208 bytes), align: 2
  Segment part 14.            Intra module refs:   cComm
           ENTRY                   ADDRESS         REF BY
           =====                   =======         ======
           cCommCtrl               00106DAD 
               stack 1 = 00000000 ( 00000020 )
    -------------------------------------------------------------------------
CODE
  Relative segment, address: 00106FB4 - 00106FB7 (0x4 bytes), align: 2
  Segment part 15.            Intra module refs:   cCommCtrl
                                                   cCommInit
    -------------------------------------------------------------------------
CODE
  Relative segment, address: 00106FB8 - 00106FBB (0x4 bytes), align: 2
  Segment part 16.            Intra module refs:   cCommCtrl
                                                   cCommInit
    -------------------------------------------------------------------------
CODE
  Relative segment, address: 00106FBC - 00106FBF (0x4 bytes), align: 2
  Segment part 17.            Intra module refs:   cCommCtrl
                                                   cCommInit
    -------------------------------------------------------------------------
CODE
  Relative segment, address: 00106FC0 - 00106FC3 (0x4 bytes), align: 2
  Segment part 18.            Intra module refs:   cCommCtrl
    -------------------------------------------------------------------------
CODE
  Relative segment, address: 00106FC4 - 00106FC7 (0x4 bytes), align: 2
  Segment part 19.            Intra module refs:   cCommCtrl
                                                   cCommInit
    -------------------------------------------------------------------------
CODE
  Relative segment, address: 00106FC8 - 00106FCB (0x4 bytes), align: 2
  Segment part 20.            Intra module refs:   cCommCtrl
    -------------------------------------------------------------------------
CODE
  Relative segment, address: 00106FCC - 00106FCF (0x4 bytes), align: 2
  Segment part 21.            Intra module refs:   cCommCtrl
                                                   cCommInit
    -------------------------------------------------------------------------
CODE
  Relative segment, address: 00106FD0 - 00106FD3 (0x4 bytes), align: 2
  Segment part 22.            Intra module refs:   cCommCtrl
    -------------------------------------------------------------------------
CODE
  Relative segment, address: 00106FD4 - 00106FD7 (0x4 bytes), align: 2
  Segment part 23.            Intra module refs:   cCommCtrl
                                                   cCommInit
    -------------------------------------------------------------------------
CODE
  Relative segment, address: 00106FD8 - 00106FE9 (0x12 bytes), align: 2
  Segment part 25.            Intra module refs:   cComm
           ENTRY                   ADDRESS         REF BY
           =====                   =======         ======
           cCommExit               00106FD9 
               stack 1 = 00000000 ( 00000004 )
    -------------------------------------------------------------------------
CODE
  Relative segment, address: 00106FEC - 00107033 (0x48 bytes), align: 2
  Segment part 27.            Intra module refs:   cCommInterpreteCmd
           ENTRY                   ADDRESS         REF BY
           =====                   =======         ======
           cCommCheckSysFileType   00106FED 
               stack 1 = 00000000 ( 00000020 )
    -------------------------------------------------------------------------
CODE
  Relative segment, address: 00107034 - 0010713B (0x108 bytes), align: 2
  Segment part 29.            Intra module refs:   cCommCtrl
                                                   cCommReceivedBtData
           ENTRY                   ADDRESS         REF BY
           =====                   =======         ======
           cCommInterprete         00107035 
               stack 1 = 00000000 ( 00000024 )
    -------------------------------------------------------------------------
CODE
  Relative segment, address: 0010713C - 0010713F (0x4 bytes), align: 2
  Segment part 30.            Intra module refs:   cCommInterprete
    -------------------------------------------------------------------------
CODE
  Relative segment, address: 00107140 - 00107143 (0x4 bytes), align: 2
  Segment part 31.            Intra module refs:   cCommInterprete
    -------------------------------------------------------------------------
CODE
  Relative segment, address: 00107144 - 00107A23 (0x8e0 bytes), align: 2
  Segment part 33.            Intra module refs:   cCommInterprete
           ENTRY                   ADDRESS         REF BY
           =====                   =======         ======
           cCommInterpreteCmd      00107145 
               stack 1 = 00000000 ( 00000038 )
    -------------------------------------------------------------------------
CODE
  Relative segment, address: 00107A24 - 00107A27 (0x4 bytes), align: 2
  Segment part 34.            Intra module refs:   cCommInterpreteCmd
    -------------------------------------------------------------------------
CODE
  Relative segment, address: 00107A28 - 00107A2B (0x4 bytes), align: 2
  Segment part 35.            Intra module refs:   cCommInterpreteCmd
    -------------------------------------------------------------------------
CODE
  Relative segment, address: 00107A2C - 00107A2F (0x4 bytes), align: 2
  Segment part 36.            Intra module refs:   cCommInterpreteCmd
    -------------------------------------------------------------------------
CODE
  Relative segment, address: 00107A30 - 00107ABB (0x8c bytes), align: 2
  Segment part 38.            Intra module refs:   cCommCtrl
           ENTRY                   ADDRESS         REF BY
           =====                   =======         ======
           cCommReceivedBtData     00107A31 
               stack 1 = 00000000 ( 00000020 )
    -------------------------------------------------------------------------
CODE
  Relative segment, address: 00107ABC - 00107ACB (0x10 bytes), align: 2
  Segment part 39.            Intra module refs:   cCommInterprete
                                                   cCommReceivedBtData
           LOCAL                   ADDRESS         
           =====                   =======         
           ?Subroutine30           00107ABD 
    -------------------------------------------------------------------------
CODE
  Relative segment, address: 00107ACC - 00107ACF (0x4 bytes), align: 2
  Segment part 40.            Intra module refs:   cCommInterpreteCmd
                                                   cCommReceivedBtData
    -------------------------------------------------------------------------
CODE
  Relative segment, address: 00107AD0 - 00107AD3 (0x4 bytes), align: 2
  Segment part 41.            Intra module refs:   cCommReceivedBtData
    -------------------------------------------------------------------------
CODE
  Relative segment, address: 00107AD4 - 00107AD7 (0x4 bytes), align: 2
  Segment part 42.            Intra module refs:   cCommReceivedBtData
    -------------------------------------------------------------------------
CODE
  Relative segment, address: 00107AD8 - 00107ADB (0x4 bytes), align: 2
  Segment part 43.            Intra module refs:   cCommReceivedBtData
    -------------------------------------------------------------------------
CODE
  Relative segment, address: 00107ADC - 00107ADF (0x4 bytes), align: 2
  Segment part 44.            Intra module refs:   cCommReceivedBtData
    -------------------------------------------------------------------------
CODE
  Relative segment, address: 00107AE0 - 00107C77 (0x198 bytes), align: 2
  Segment part 46.            Intra module refs:   cCommReceivedBtData
           ENTRY                   ADDRESS         REF BY
           =====                   =======         ======
           cCommBtCmdInterpreter   00107AE1 
               stack 1 = 00000000 ( 00000020 )
    -------------------------------------------------------------------------
CODE
  Relative segment, address: 00107C78 - 00107C7B (0x4 bytes), align: 2
  Segment part 47.            Intra module refs:   cCommBtCmdInterpreter
    -------------------------------------------------------------------------
CODE
  Relative segment, address: 00107C7C - 00107C7F (0x4 bytes), align: 2
  Segment part 48.            Intra module refs:   cCommBtCmdInterpreter
    -------------------------------------------------------------------------
CODE
  Relative segment, address: 00107C80 - 00107C83 (0x4 bytes), align: 2
  Segment part 49.            Intra module refs:   cCommBtCmdInterpreter
    -------------------------------------------------------------------------
CODE
  Relative segment, address: 00107C84 - 00107C87 (0x4 bytes), align: 2
  Segment part 50.            Intra module refs:   cCommBtCmdInterpreter
    -------------------------------------------------------------------------
CODE
  Relative segment, address: 00107C88 - 00107C8B (0x4 bytes), align: 2
  Segment part 51.            Intra module refs:   cCommBtCmdInterpreter
    -------------------------------------------------------------------------
CODE
  Relative segment, address: 00107C8C - 00107C8F (0x4 bytes), align: 2
  Segment part 52.            Intra module refs:   cCommBtCmdInterpreter
    -------------------------------------------------------------------------
CODE
  Relative segment, address: 00107C90 - 00107C93 (0x4 bytes), align: 2
  Segment part 53.            Intra module refs:   cCommBtCmdInterpreter
    -------------------------------------------------------------------------
CODE
  Relative segment, address: 00107C94 - 00107C97 (0x4 bytes), align: 2
  Segment part 54.            Intra module refs:   cCommBtCmdInterpreter
    -------------------------------------------------------------------------
CODE
  Relative segment, address: 00107C98 - 00107C9B (0x4 bytes), align: 2
  Segment part 55.            Intra module refs:   cCommBtCmdInterpreter
    -------------------------------------------------------------------------
CODE
  Relative segment, address: 00107C9C - 00107CCF (0x34 bytes), align: 2
  Segment part 57.            Intra module refs:   cCommCheckSysFileType
           ENTRY                   ADDRESS         REF BY
           =====                   =======         ======
           cCommCpyToUpper         00107C9D 
               stack 1 = 00000000 ( 00000010 )
    -------------------------------------------------------------------------
CODE
  Relative segment, address: 00107CD0 - 00107CED (0x1e bytes), align: 2
  Segment part 59.            Intra module refs:   cCommInterpreteCmd
                                                   cCommReq
           ENTRY                   ADDRESS         REF BY
           =====                   =======         ======
           cCommCopyFileName       00107CD1 
               stack 1 = 00000000 ( 00000008 )
    -------------------------------------------------------------------------
CODE
  Relative segment, address: 00107CF0 - 00107D33 (0x44 bytes), align: 2
  Segment part 61.            Intra module refs:   cCommCtrl
           ENTRY                   ADDRESS         REF BY
           =====                   =======         ======
           cCommSendHiSpeedData    00107CF1 
               stack 1 = 00000000 ( 00000014 )
    -------------------------------------------------------------------------
CODE
  Relative segment, address: 00107D34 - 00107D4B (0x18 bytes), align: 2
  Segment part 62.            Intra module refs:   cCommClrConnTable
                                                   cCommInit
                                                   cCommSendHiSpeedData
                                                   cCommUpdateBt
                                                   cCommsDisconnectAll
           LOCAL                   ADDRESS         
           =====                   =======         
           ?Subroutine28           00107D35 
    -------------------------------------------------------------------------
CODE
  Relative segment, address: 00107D4C - 00107DA3 (0x58 bytes), align: 2
  Segment part 64.            Intra module refs:   cCommCtrl
           ENTRY                   ADDRESS         REF BY
           =====                   =======         ======
           cCommReceivedHiSpeedData
                                   00107D4D 
               stack 1 = 00000000 ( 00000014 )
    -------------------------------------------------------------------------
CODE
  Relative segment, address: 00107DA4 - 00107DA7 (0x4 bytes), align: 2
  Segment part 65.            Intra module refs:   cCommReceivedHiSpeedData
    -------------------------------------------------------------------------
CODE
  Relative segment, address: 00107DA8 - 00107DAB (0x4 bytes), align: 2
  Segment part 66.            Intra module refs:   cCommReceivedHiSpeedData
    -------------------------------------------------------------------------
CODE
  Relative segment, address: 00107DAC - 00107DF7 (0x4c bytes), align: 2
  Segment part 68.            Intra module refs:   cCommBtCmdInterpreter
           ENTRY                   ADDRESS         REF BY
           =====                   =======         ======
           cCommBtValidateCmd      00107DAD 
               stack 1 = 00000000 ( 0000000C )
    -------------------------------------------------------------------------
CODE
  Relative segment, address: 00107DF8 - 00107E03 (0xc bytes), align: 2
  Segment part 69.            Intra module refs:   cCommBtValidateCmd
                                                   cCommCheckSysFileType
                                                   cCommSearchBTDevTableForName
           LOCAL                   ADDRESS         
           =====                   =======         
           ?Subroutine29           00107DF9 
    -------------------------------------------------------------------------
CODE
  Relative segment, address: 00107E04 - 00107E07 (0x4 bytes), align: 2
  Segment part 70.            Intra module refs:   cCommBtValidateCmd
    -------------------------------------------------------------------------
CODE
  Relative segment, address: 00107E08 - 00107E1D (0x16 bytes), align: 2
  Segment part 72.            Intra module refs:   cCommsSetCmdMode
           ENTRY                   ADDRESS         REF BY
           =====                   =======         ======
           cCommClearStreamStatus
                                   00107E09 
    -------------------------------------------------------------------------
CODE
  Relative segment, address: 00107E20 - 00107E23 (0x4 bytes), align: 2
  Segment part 73.            Intra module refs:   cCommBtCmdInterpreter
                                                   cCommBtValidateCmd
                                                   cCommClearStreamStatus
                                                   cCommReceivedHiSpeedData
                                                   cCommSendHiSpeedData
    -------------------------------------------------------------------------
CODE
  Relative segment, address: 00107E24 - 00107E27 (0x4 bytes), align: 2
  Segment part 74.            Intra module refs:   cCommClearStreamStatus
    -------------------------------------------------------------------------
CODE
  Relative segment, address: 00107E28 - 00108FFB (0x11d4 bytes), align: 2
  Segment part 76.            Intra module refs:   cCommCtrl
           ENTRY                   ADDRESS         REF BY
           =====                   =======         ======
           cCommUpdateBt           00107E29 
               stack 1 = 00000000 ( 00000058 )
    -------------------------------------------------------------------------
CODE
  Relative segment, address: 00108FFC - 00108FFF (0x4 bytes), align: 2
  Segment part 77.            Intra module refs:   cCommUpdateBt
    -------------------------------------------------------------------------
CODE
  Relative segment, address: 00109000 - 0010900D (0xe bytes), align: 2
  Segment part 79.            Intra module refs:   cCommInsertDevice
                                                   cCommInterpreteCmd
                                                   cCommReq
                                                   cCommUpdateBt
           ENTRY                   ADDRESS         REF BY
           =====                   =======         ======
           cCommCopyBdaddr         00109001 
               stack 1 = 00000000 ( 00000004 )
    -------------------------------------------------------------------------
CODE
  Relative segment, address: 00109010 - 00109027 (0x18 bytes), align: 2
  Segment part 81.            Intra module refs:   cCommInsertDevice
                                                   cCommUpdateBt
           ENTRY                   ADDRESS         REF BY
           =====                   =======         ======
           cCommCheckBdaddr        00109011 
               stack 1 = 00000000 ( 00000008 )
    -------------------------------------------------------------------------
CODE
  Relative segment, address: 00109028 - 00109059 (0x32 bytes), align: 2
  Segment part 83.            Intra module refs:   cCommInsertDevice
                                                   cCommInterpreteCmd
                                                   cCommUpdateBt
           ENTRY                   ADDRESS         REF BY
           =====                   =======         ======
           cCommInsertBtName       00109029 
               stack 1 = 00000000 ( 00000010 )
    -------------------------------------------------------------------------
CODE
  Relative segment, address: 0010905C - 0010913B (0xe0 bytes), align: 2
  Segment part 85.            Intra module refs:   cCommUpdateBt
           ENTRY                   ADDRESS         REF BY
           =====                   =======         ======
           cCommInsertDevice       0010905D 
               stack 1 = 00000000 ( 00000024 )
    -------------------------------------------------------------------------
CODE
  Relative segment, address: 0010913C - 00109141 (0x6 bytes), align: 2
  Segment part 86.            Intra module refs:   cCommInsertDevice
                                                   cCommInterpreteCmd
                                                   cCommReq
           LOCAL                   ADDRESS         
           =====                   =======         
           ?Subroutine31           0010913D 
    -------------------------------------------------------------------------
CODE
  Relative segment, address: 00109144 - 001091D3 (0x90 bytes), align: 2
  Segment part 88.            Intra module refs:   cCommUpdateBt
                                                   cCommsOpenStream
           ENTRY                   ADDRESS         REF BY
           =====                   =======         ======
           cCommsSetCmdMode        00109145 
               stack 1 = 00000000 ( 00000018 )
    -------------------------------------------------------------------------
CODE
  Relative segment, address: 001091D4 - 001091D9 (0x6 bytes), align: 2
  Segment part 89.            Intra module refs:   cCommBtCmdInterpreter
                                                   cCommsBtReset
                                                   cCommsSetCmdMode
           LOCAL                   ADDRESS         
           =====                   =======         
           ?Subroutine32           001091D5 
    -------------------------------------------------------------------------
CODE
  Relative segment, address: 001091DC - 001091DF (0x4 bytes), align: 2
  Segment part 90.            Intra module refs:   cCommInsertDevice
                                                   cCommUpdateBt
                                                   cCommsSetCmdMode
    -------------------------------------------------------------------------
CODE
  Relative segment, address: 001091E0 - 001091E3 (0x4 bytes), align: 2
  Segment part 91.            Intra module refs:   cCommsSetCmdMode
    -------------------------------------------------------------------------
CODE
  Relative segment, address: 001091E4 - 001092CB (0xe8 bytes), align: 2
  Segment part 93.            Intra module refs:   cCommUpdateBt
           ENTRY                   ADDRESS         REF BY
           =====                   =======         ======
           cCommsOpenStream        001091E5 
               stack 1 = 00000000 ( 0000002C )
    -------------------------------------------------------------------------
CODE
  Relative segment, address: 001092CC - 001092CF (0x4 bytes), align: 2
  Segment part 94.            Intra module refs:   cCommsOpenStream
    -------------------------------------------------------------------------
CODE
  Relative segment, address: 001092D0 - 001092D3 (0x4 bytes), align: 2
  Segment part 95.            Intra module refs:   cCommsOpenStream
    -------------------------------------------------------------------------
CODE
  Relative segment, address: 001092D4 - 001092D7 (0x4 bytes), align: 2
  Segment part 96.            Intra module refs:   cCommsOpenStream
                                                   cCommsSetCmdMode
    -------------------------------------------------------------------------
CODE
  Relative segment, address: 001092D8 - 001092DB (0x4 bytes), align: 2
  Segment part 97.            Intra module refs:   cCommsOpenStream
    -------------------------------------------------------------------------
CODE
  Relative segment, address: 001092DC - 0010932B (0x50 bytes), align: 2
  Segment part 99.            Intra module refs:   cCommUpdateBt
                                                   cCommsOpenStream
           ENTRY                   ADDRESS         REF BY
           =====                   =======         ======
           cCommsCloseConn0        001092DD 
               stack 1 = 00000000 ( 00000018 )
    -------------------------------------------------------------------------
CODE
  Relative segment, address: 0010932C - 00109337 (0xc bytes), align: 2
  Segment part 100.           Intra module refs:   cCommCopyFileName
                                                   cCommsCloseConn0
           LOCAL                   ADDRESS         
           =====                   =======         
           ?Subroutine33           0010932D 
    -------------------------------------------------------------------------
CODE
  Relative segment, address: 00109338 - 001093BF (0x88 bytes), align: 2
  Segment part 102.           Intra module refs:   cCommUpdateBt
           ENTRY                   ADDRESS         REF BY
           =====                   =======         ======
           cCommsDisconnectAll     00109339 
               stack 1 = 00000000 ( 00000020 )
    -------------------------------------------------------------------------
CODE
  Relative segment, address: 001093C0 - 001093C3 (0x4 bytes), align: 2
  Segment part 103.           Intra module refs:   cCommsCloseConn0
                                                   cCommsDisconnectAll
                                                   cCommsOpenStream
    -------------------------------------------------------------------------
CODE
  Relative segment, address: 001093C4 - 001093C7 (0x4 bytes), align: 2
  Segment part 104.           Intra module refs:   cCommsCloseConn0
                                                   cCommsDisconnectAll
                                                   cCommsOpenStream
    -------------------------------------------------------------------------
CODE
  Relative segment, address: 001093C8 - 0010947F (0xb8 bytes), align: 2
  Segment part 106.           Intra module refs:   cCommUpdateBt
           ENTRY                   ADDRESS         REF BY
           =====                   =======         ======
           cCommsBtReset           001093C9 
               stack 1 = 00000000 ( 00000018 )
    -------------------------------------------------------------------------
CODE
  Relative segment, address: 00109480 - 00109483 (0x4 bytes), align: 2
  Segment part 107.           Intra module refs:   cCommsBtReset
                                                   cCommsCloseConn0
                                                   cCommsDisconnectAll
                                                   cCommsOpenStream
    -------------------------------------------------------------------------
CODE
  Relative segment, address: 00109484 - 00109487 (0x4 bytes), align: 2
  Segment part 108.           Intra module refs:   cCommsBtReset
                                                   cCommsCloseConn0
                                                   cCommsDisconnectAll
    -------------------------------------------------------------------------
CODE
  Relative segment, address: 00109488 - 0010948B (0x4 bytes), align: 2
  Segment part 109.           Intra module refs:   cCommsBtReset
                                                   cCommsOpenStream
                                                   cCommsSetCmdMode
    -------------------------------------------------------------------------
CODE
  Relative segment, address: 0010948C - 0010948F (0x4 bytes), align: 2
  Segment part 110.           Intra module refs:   cCommsBtReset
                                                   cCommsSetCmdMode
    -------------------------------------------------------------------------
CODE
  Relative segment, address: 00109490 - 00109493 (0x4 bytes), align: 2
  Segment part 111.           Intra module refs:   cCommsBtReset
                                                   cCommsOpenStream
                                                   cCommsSetCmdMode
    -------------------------------------------------------------------------
CODE
  Relative segment, address: 00109494 - 0010965F (0x1cc bytes), align: 2
  Segment part 113.           Intra module refs:   cCommBtCmdInterpreter
                                                   cCommInit
                                                   cCommInterpreteCmd
           ENTRY                   ADDRESS         REF BY
           =====                   =======         ======
           cCommReq                00109495 
               stack 1 = 00000000 ( 00000034 )
    -------------------------------------------------------------------------
CODE
  Relative segment, address: 00109660 - 00109663 (0x4 bytes), align: 2
  Segment part 114.           Intra module refs:   cCommReq
    -------------------------------------------------------------------------
CODE
  Relative segment, address: 00109664 - 00109667 (0x4 bytes), align: 2
  Segment part 115.           Intra module refs:   cCommReq
    -------------------------------------------------------------------------
CODE
  Relative segment, address: 00109668 - 0010966B (0x4 bytes), align: 2
  Segment part 116.           Intra module refs:   cCommReq
    -------------------------------------------------------------------------
CODE
  Relative segment, address: 0010966C - 0010966F (0x4 bytes), align: 2
  Segment part 117.           Intra module refs:   cCommReq
    -------------------------------------------------------------------------
CODE
  Relative segment, address: 00109670 - 00109673 (0x4 bytes), align: 2
  Segment part 118.           Intra module refs:   cCommReq
    -------------------------------------------------------------------------
CODE
  Relative segment, address: 00109674 - 00109677 (0x4 bytes), align: 2
  Segment part 119.           Intra module refs:   cCommReq
    -------------------------------------------------------------------------
CODE
  Relative segment, address: 00109678 - 0010967B (0x4 bytes), align: 2
  Segment part 120.           Intra module refs:   cCommReq
    -------------------------------------------------------------------------
CODE
  Relative segment, address: 0010967C - 0010967F (0x4 bytes), align: 2
  Segment part 121.           Intra module refs:   cCommReq
    -------------------------------------------------------------------------
CODE
  Relative segment, address: 00109680 - 00109683 (0x4 bytes), align: 2
  Segment part 122.           Intra module refs:   cCommReq
    -------------------------------------------------------------------------
CODE
  Relative segment, address: 00109684 - 0010969B (0x18 bytes), align: 2
  Segment part 124.           Intra module refs:   cCommInit
           ENTRY                   ADDRESS         REF BY
           =====                   =======         ======
           cCommPinCode            00109685 
               stack 1 = 00000000 ( 00000004 )
    -------------------------------------------------------------------------
CODE
  Relative segment, address: 0010969C - 0010971D (0x82 bytes), align: 2
  Segment part 126.           Intra module refs:   cCommInit
                                                   cCommsBtReset
           ENTRY                   ADDRESS         REF BY
           =====                   =======         ======
           cCommClrConnTable       0010969D 
               stack 1 = 00000000 ( 00000014 )
    -------------------------------------------------------------------------
CODE
  Relative segment, address: 00109720 - 00109723 (0x4 bytes), align: 2
  Segment part 127.           Intra module refs:   cCommClrConnTable
    -------------------------------------------------------------------------
CODE
  Relative segment, address: 00109724 - 00109727 (0x4 bytes), align: 2
  Segment part 128.           Intra module refs:   cCommClrConnTable
                                                   cCommReq
    -------------------------------------------------------------------------
CODE
  Relative segment, address: 00109728 - 0010972B (0x4 bytes), align: 2
  Segment part 129.           Intra module refs:   cCommClrConnTable
    -------------------------------------------------------------------------
CODE
  Relative segment, address: 0010972C - 0010972F (0x4 bytes), align: 2
  Segment part 130.           Intra module refs:   cCommClrConnTable
    -------------------------------------------------------------------------
CODE
  Relative segment, address: 00109730 - 00109733 (0x4 bytes), align: 2
  Segment part 131.           Intra module refs:   cCommClrConnTable
                                                   cCommReq
    -------------------------------------------------------------------------
CODE
  Relative segment, address: 00109734 - 00109737 (0x4 bytes), align: 2
  Segment part 132.           Intra module refs:   cCommClrConnTable
    -------------------------------------------------------------------------
CODE
  Relative segment, address: 00109738 - 0010973B (0x4 bytes), align: 2
  Segment part 133.           Intra module refs:   cCommClrConnTable
                                                   cCommReq
    -------------------------------------------------------------------------
CODE
  Relative segment, address: 0010973C - 00109771 (0x36 bytes), align: 2
  Segment part 135.           Intra module refs:   cCommReq
           ENTRY                   ADDRESS         REF BY
           =====                   =======         ======
           cCommSearchBTDevTableForName
                                   0010973D 
               stack 1 = 00000000 ( 0000000C )
    -------------------------------------------------------------------------
CODE
  Relative segment, address: 00109774 - 00109777 (0x4 bytes), align: 2
  Segment part 136.           Intra module refs:   cCommClrConnTable
                                                   cCommReq
                                                   cCommSearchBTDevTableForName

    *************************************************************************

  FILE NAME : C:\Documents and Settings\Lane Kolbly\My Documents\GitHub\blindnxt\AT91SAM7S256\SAM7S256\Object\c_display.r79
  PROGRAM MODULE, NAME : c_display

  SEGMENTS IN THE MODULE
  ======================
DATA_Z
  Relative segment, address: 00009884 - 00009F3B (0x6b8 bytes), align: 2
  Segment part 2.             Intra module refs:   ?Subroutine21
                                                   Segment part 15
                                                   Segment part 23
                                                   Segment part 38
                                                   Segment part 41
                                                   Segment part 46
                                                   Segment part 51
                                                   cDisplay
                                                   cDisplayCtrl
                                                   cDisplayDraw
           LOCAL                   ADDRESS         
           =====                   =======         
           IOMapDisplay            00009884 
    -------------------------------------------------------------------------
DATA_Z
  Relative segment, address: 00009F3C - 00009F53 (0x18 bytes), align: 2
  Segment part 3.             Intra module refs:   Segment part 47
                                                   cDisplay
                                                   cDisplayCtrl
           LOCAL                   ADDRESS         
           =====                   =======         
           VarsDisplay             00009F3C 
    -------------------------------------------------------------------------
DATA_C
  Relative segment, address: 0011A0A8 - 0011A0DB (0x34 bytes), align: 2
  Segment part 4.
           ENTRY                   ADDRESS         REF BY
           =====                   =======         ======
           cDisplay                0011A0A8        Segment part 5 (m_sched)
    -------------------------------------------------------------------------
DATA_C
  Relative segment, address: 0011A0DC - 0011A11B (0x40 bytes), align: 2
  Segment part 5.             Intra module refs:   ?Subroutine21
                                                   cDisplayCtrl
           ENTRY                   ADDRESS         REF BY
           =====                   =======         ======
           MENUICON_CORDINATES     0011A0EC 
           SCREEN_CORDINATES       0011A0DC 
           SELECT_FRAME_CORDINATES
                                   0011A0E8 
           STATUSICON_CORDINATES   0011A0F8 
           STEPICON_CORDINATES     0011A108 
    -------------------------------------------------------------------------
CODE
  Relative segment, address: 00109778 - 001097A1 (0x2a bytes), align: 2
  Segment part 7.             Intra module refs:   cDisplayChar
                                                   cDisplayDraw
           ENTRY                   ADDRESS         REF BY
           =====                   =======         ======
           cDisplaySetPixel        00109779 
               stack 1 = 00000000 ( 00000008 )
    -------------------------------------------------------------------------
CODE
  Relative segment, address: 001097A4 - 001097CB (0x28 bytes), align: 2
  Segment part 9.             Intra module refs:   cDisplayChar
                                                   cDisplayDraw
           ENTRY                   ADDRESS         REF BY
           =====                   =======         ======
           cDisplayClrPixel        001097A5 
               stack 1 = 00000000 ( 00000008 )
    -------------------------------------------------------------------------
CODE
  Relative segment, address: 001097CC - 001097D1 (0x6 bytes), align: 2
  Segment part 10.            Intra module refs:   cDisplayClrPixel
                                                   cDisplayFrame
                                                   cDisplaySetPixel
           LOCAL                   ADDRESS         
           =====                   =======         
           ?Subroutine18           001097CD 
    -------------------------------------------------------------------------
CODE
  Relative segment, address: 001097D4 - 00109871 (0x9e bytes), align: 2
  Segment part 12.            Intra module refs:   cDisplayDraw
           ENTRY                   ADDRESS         REF BY
           =====                   =======         ======
           cDisplayChar            001097D5 
               stack 1 = 00000000 ( 00000024 )
    -------------------------------------------------------------------------
CODE
  Relative segment, address: 00109874 - 001098D1 (0x5e bytes), align: 2
  Segment part 14.            Intra module refs:   cDisplayCenterString
                                                   cDisplayCtrl
           ENTRY                   ADDRESS         REF BY
           =====                   =======         ======
           cDisplayString          00109875 
               stack 1 = 00000000 ( 00000010 )
    -------------------------------------------------------------------------
CODE
  Relative segment, address: 001098D4 - 001098D7 (0x4 bytes), align: 2
  Segment part 15.            Intra module refs:   cDisplayString
    -------------------------------------------------------------------------
CODE
  Relative segment, address: 001098D8 - 00109941 (0x6a bytes), align: 2
  Segment part 17.            Intra module refs:   cDisplayCtrl
           ENTRY                   ADDRESS         REF BY
           =====                   =======         ======
           cDisplayUpdateScreen    001098D9 
               stack 1 = 00000000 ( 00000018 )
    -------------------------------------------------------------------------
CODE
  Relative segment, address: 00109944 - 00109979 (0x36 bytes), align: 2
  Segment part 19.            Intra module refs:   cDisplayCtrl
           ENTRY                   ADDRESS         REF BY
           =====                   =======         ======
           cDisplayCenterString    00109945 
               stack 1 = 00000000 ( 0000000C )
    -------------------------------------------------------------------------
CODE
  Relative segment, address: 0010997C - 00109A0B (0x90 bytes), align: 2
  Segment part 21.            Intra module refs:   cDisplayCtrl
           ENTRY                   ADDRESS         REF BY
           =====                   =======         ======
           cDisplayUpdateMenuIcon
                                   0010997D 
               stack 1 = 00000000 ( 00000018 )
    -------------------------------------------------------------------------
CODE
  Relative segment, address: 00109A0C - 00109A11 (0x6 bytes), align: 2
  Segment part 22.            Intra module refs:   cDisplayUpdateMenuIcon
                                                   cDisplayUpdateScreen
           LOCAL                   ADDRESS         
           =====                   =======         
           ?Subroutine20           00109A0D 
    -------------------------------------------------------------------------
CODE
  Relative segment, address: 00109A14 - 00109A17 (0x4 bytes), align: 2
  Segment part 23.            Intra module refs:   cDisplayClrPixel
                                                   cDisplaySetPixel
                                                   cDisplayUpdateMenuIcon
                                                   cDisplayUpdateScreen
    -------------------------------------------------------------------------
CODE
  Relative segment, address: 00109A18 - 00109B07 (0xf0 bytes), align: 2
  Segment part 25.            Intra module refs:   cDisplayCtrl
           ENTRY                   ADDRESS         REF BY
           =====                   =======         ======
           cDisplayUpdateIcon      00109A19 
               stack 1 = 00000000 ( 00000020 )
    -------------------------------------------------------------------------
CODE
  Relative segment, address: 00109B08 - 00109B37 (0x30 bytes), align: 2
  Segment part 27.            Intra module refs:   cDisplayCtrl
                                                   cDisplayDraw
                                                   cDisplayFrame
           ENTRY                   ADDRESS         REF BY
           =====                   =======         ======
           cDisplayLineX           00109B09 
               stack 1 = 00000000 ( 00000010 )
    -------------------------------------------------------------------------
CODE
  Relative segment, address: 00109B38 - 00109B3D (0x6 bytes), align: 2
  Segment part 28.            Intra module refs:   cDisplayDraw
                                                   cDisplayEraseScreen
                                                   cDisplayLineX
                                                   cDisplayString
           LOCAL                   ADDRESS         
           =====                   =======         
           ?Subroutine19           00109B39 
    -------------------------------------------------------------------------
CODE
  Relative segment, address: 00109B40 - 00109B6F (0x30 bytes), align: 2
  Segment part 30.            Intra module refs:   cDisplayDraw
                                                   cDisplayFrame
           ENTRY                   ADDRESS         REF BY
           =====                   =======         ======
           cDisplayLineY           00109B41 
               stack 1 = 00000000 ( 00000014 )
    -------------------------------------------------------------------------
CODE
  Relative segment, address: 00109B70 - 00109BB5 (0x46 bytes), align: 2
  Segment part 32.            Intra module refs:   cDisplayCtrl
           ENTRY                   ADDRESS         REF BY
           =====                   =======         ======
           cDisplayFrame           00109B71 
               stack 1 = 00000000 ( 00000008 )
    -------------------------------------------------------------------------
CODE
  Relative segment, address: 00109BB8 - 00109BC9 (0x12 bytes), align: 2
  Segment part 34.            Intra module refs:   cDisplayCtrl
           ENTRY                   ADDRESS         REF BY
           =====                   =======         ======
           cDisplayEraseLine       00109BB9 
               stack 1 = 00000000 ( 00000004 )
    -------------------------------------------------------------------------
CODE
  Relative segment, address: 00109BCC - 00109BD7 (0xc bytes), align: 2
  Segment part 36.            Intra module refs:   cDisplayDraw
           ENTRY                   ADDRESS         REF BY
           =====                   =======         ======
           cDisplayErase           00109BCD 
               stack 1 = 00000000 ( 00000004 )
    -------------------------------------------------------------------------
CODE
  Relative segment, address: 00109BD8 - 00109BDF (0x8 bytes), align: 2
  Segment part 37.            Intra module refs:   cDisplayErase
                                                   cDisplayEraseLine
           LOCAL                   ADDRESS         
           =====                   =======         
           ?Subroutine22           00109BD9 
    -------------------------------------------------------------------------
CODE
  Relative segment, address: 00109BE0 - 00109BE3 (0x4 bytes), align: 2
  Segment part 38.            Intra module refs:   cDisplayErase
                                                   cDisplayEraseLine
    -------------------------------------------------------------------------
CODE
  Relative segment, address: 00109BE4 - 00109C25 (0x42 bytes), align: 2
  Segment part 40.            Intra module refs:   cDisplayCtrl
           ENTRY                   ADDRESS         REF BY
           =====                   =======         ======
           cDisplayEraseScreen     00109BE5 
               stack 1 = 00000000 ( 00000010 )
    -------------------------------------------------------------------------
CODE
  Relative segment, address: 00109C28 - 00109C2B (0x4 bytes), align: 2
  Segment part 41.            Intra module refs:   cDisplayEraseScreen
                                                   cDisplayLineX
                                                   cDisplayLineY
                                                   cDisplayUpdateIcon
    -------------------------------------------------------------------------
CODE
  Relative segment, address: 00109C2C - 00109CAB (0x80 bytes), align: 2
  Segment part 43.            Intra module refs:   cDisplayInit
           ENTRY                   ADDRESS         REF BY
           =====                   =======         ======
           cDisplayDraw            00109C2D 
               stack 1 = 00000000 ( 00000014 )
    -------------------------------------------------------------------------
CODE
  Relative segment, address: 00109CAC - 00109CD7 (0x2c bytes), align: 2
  Segment part 45.            Intra module refs:   cDisplay
           ENTRY                   ADDRESS         REF BY
           =====                   =======         ======
           cDisplayInit            00109CAD 
               stack 1 = 00000000 ( 00000004 )
    -------------------------------------------------------------------------
CODE
  Relative segment, address: 00109CD8 - 00109CDB (0x4 bytes), align: 2
  Segment part 46.            Intra module refs:   cDisplayInit
    -------------------------------------------------------------------------
CODE
  Relative segment, address: 00109CDC - 00109CDF (0x4 bytes), align: 2
  Segment part 47.            Intra module refs:   cDisplayInit
    -------------------------------------------------------------------------
CODE
  Relative segment, address: 00109CE0 - 0010A143 (0x464 bytes), align: 2
  Segment part 49.            Intra module refs:   cDisplay
           ENTRY                   ADDRESS         REF BY
           =====                   =======         ======
           cDisplayCtrl            00109CE1 
               stack 1 = 00000000 ( 00000028 )
    -------------------------------------------------------------------------
CODE
  Relative segment, address: 0010A144 - 0010A15B (0x18 bytes), align: 2
  Segment part 50.            Intra module refs:   cDisplayCtrl
                                                   cDisplayLineY
           LOCAL                   ADDRESS         
           =====                   =======         
           ?Subroutine21           0010A145 
    -------------------------------------------------------------------------
CODE
  Relative segment, address: 0010A15C - 0010A15F (0x4 bytes), align: 2
  Segment part 51.            Intra module refs:   cDisplayCtrl
    -------------------------------------------------------------------------
CODE
  Relative segment, address: 0010A160 - 0010A169 (0xa bytes), align: 2
  Segment part 53.            Intra module refs:   cDisplay
           ENTRY                   ADDRESS         REF BY
           =====                   =======         ======
           cDisplayExit            0010A161 
               stack 1 = 00000000 ( 00000004 )

    *************************************************************************

  FILE NAME : C:\Documents and Settings\Lane Kolbly\My Documents\GitHub\blindnxt\AT91SAM7S256\SAM7S256\Object\c_input.r79
  PROGRAM MODULE, NAME : c_input

  SEGMENTS IN THE MODULE
  ======================
DATA_C
  Relative segment, address: 0011A11C - 0011A78B (0x670 bytes), align: 2
  Segment part 2.             Intra module refs:   cInputCalcSensorValues
           ENTRY                   ADDRESS         REF BY
           =====                   =======         ======
           TempConvTable           0011A11C 
    -------------------------------------------------------------------------
DATA_Z
  Relative segment, address: 00009F54 - 0000A15B (0x208 bytes), align: 2
  Segment part 3.             Intra module refs:   Segment part 10
                                                   Segment part 11
                                                   Segment part 26
                                                   Segment part 9
                                                   cInput
                                                   cInputCalcSensorValues
                                                   cInputInit
           LOCAL                   ADDRESS         
           =====                   =======         
           IOMapInput              00009F54 
           VarsInput               0000A0F4 
    -------------------------------------------------------------------------
DATA_C
  Relative segment, address: 0011A78C - 0011A7BF (0x34 bytes), align: 2
  Segment part 4.
           ENTRY                   ADDRESS         REF BY
           =====                   =======         ======
           cInput                  0011A78C        Segment part 5 (m_sched)
    -------------------------------------------------------------------------
CODE
  Relative segment, address: 0010A16C - 0010A1FB (0x90 bytes), align: 2
  Segment part 6.             Intra module refs:   cInput
           ENTRY                   ADDRESS         REF BY
           =====                   =======         ======
           cInputInit              0010A16D 
               stack 1 = 00000000 ( 00000014 )
    -------------------------------------------------------------------------
CODE
  Relative segment, address: 0010A1FC - 0010A2F9 (0xfe bytes), align: 2
  Segment part 8.             Intra module refs:   cInput
           ENTRY                   ADDRESS         REF BY
           =====                   =======         ======
           cInputCtrl              0010A1FD 
               stack 1 = 00000000 ( 00000018 )
    -------------------------------------------------------------------------
CODE
  Relative segment, address: 0010A2FC - 0010A2FF (0x4 bytes), align: 2
  Segment part 9.             Intra module refs:   cInputCtrl
                                                   cInputInit
    -------------------------------------------------------------------------
CODE
  Relative segment, address: 0010A300 - 0010A303 (0x4 bytes), align: 2
  Segment part 10.            Intra module refs:   cInputCtrl
                                                   cInputInit
    -------------------------------------------------------------------------
CODE
  Relative segment, address: 0010A304 - 0010A307 (0x4 bytes), align: 2
  Segment part 11.            Intra module refs:   cInputCtrl
                                                   cInputInit
    -------------------------------------------------------------------------
CODE
  Relative segment, address: 0010A308 - 0010A7E3 (0x4dc bytes), align: 2
  Segment part 13.            Intra module refs:   cInputCtrl
           ENTRY                   ADDRESS         REF BY
           =====                   =======         ======
           cInputCalcSensorValues
                                   0010A309 
               stack 1 = 00000000 ( 00000054 )
    -------------------------------------------------------------------------
CODE
  Relative segment, address: 0010A7E4 - 0010A7E9 (0x6 bytes), align: 2
  Segment part 14.            Intra module refs:   cInputCalcSensorValues
                                                   cInputInit
                                                   cInputSetupType
           LOCAL                   ADDRESS         
           =====                   =======         
           ?Subroutine10           0010A7E5 
    -------------------------------------------------------------------------
CODE
  Relative segment, address: 0010A7EC - 0010AA1D (0x232 bytes), align: 2
  Segment part 16.            Intra module refs:   cInputCalcSensorValues
           ENTRY                   ADDRESS         REF BY
           =====                   =======         ======
           cInputCalcSensorValue   0010A7ED 
               stack 1 = 00000000 ( 00000024 )
    -------------------------------------------------------------------------
CODE
  Relative segment, address: 0010AA20 - 0010AA5B (0x3c bytes), align: 2
  Segment part 18.            Intra module refs:   cInputCalcSensorValues
                                                   cInputCalibrateColor
           ENTRY                   ADDRESS         REF BY
           =====                   =======         ======
           cInputCalcFullScale     0010AA21 
               stack 1 = 00000000 ( 00000008 )
    -------------------------------------------------------------------------
CODE
  Relative segment, address: 0010AA5C - 0010AA5F (0x4 bytes), align: 2
  Segment part 19.            Intra module refs:   cInputCalcFullScale
                                                   cInputCalcSensorValue
    -------------------------------------------------------------------------
CODE
  Relative segment, address: 0010AA60 - 0010AB6B (0x10c bytes), align: 2
  Segment part 21.            Intra module refs:   cInputCtrl
           ENTRY                   ADDRESS         REF BY
           =====                   =======         ======
           cInputSetupType         0010AA61 
               stack 1 = 00000000 ( 00000014 )
    -------------------------------------------------------------------------
CODE
  Relative segment, address: 0010AB6C - 0010ABD7 (0x6c bytes), align: 2
  Segment part 23.            Intra module refs:   cInputCalcSensorValues
                                                   cInputSetupType
           ENTRY                   ADDRESS         REF BY
           =====                   =======         ======
           cInputSetupCustomSensor
                                   0010AB6D 
               stack 1 = 00000000 ( 0000000C )
    -------------------------------------------------------------------------
CODE
  Relative segment, address: 0010ABD8 - 0010AD67 (0x190 bytes), align: 2
  Segment part 25.            Intra module refs:   cInputCalcSensorValues
           ENTRY                   ADDRESS         REF BY
           =====                   =======         ======
           cInputInitColorSensor   0010ABD9 
               stack 1 = 00000000 ( 00000028 )
    -------------------------------------------------------------------------
CODE
  Relative segment, address: 0010AD68 - 0010AD6B (0x4 bytes), align: 2
  Segment part 26.            Intra module refs:   cInputInitColorSensor
                                                   cInputSetupCustomSensor
                                                   cInputSetupType
    -------------------------------------------------------------------------
CODE
  Relative segment, address: 0010AD6C - 0010ADEF (0x84 bytes), align: 2
  Segment part 28.            Intra module refs:   cInputCalcSensorValues
           ENTRY                   ADDRESS         REF BY
           =====                   =======         ======
           cInputCalibrateColor    0010AD6D 
               stack 1 = 00000000 ( 0000000C )
    -------------------------------------------------------------------------
CODE
  Relative segment, address: 0010ADF0 - 0010ADF5 (0x6 bytes), align: 2
  Segment part 29.            Intra module refs:   cInputCalibrateColor
                                                   cInputSetupCustomSensor
           LOCAL                   ADDRESS         
           =====                   =======         
           ?Subroutine11           0010ADF1 
    -------------------------------------------------------------------------
CODE
  Relative segment, address: 0010ADF8 - 0010AE01 (0xa bytes), align: 2
  Segment part 31.            Intra module refs:   cInput
           ENTRY                   ADDRESS         REF BY
           =====                   =======         ======
           cInputExit              0010ADF9 
               stack 1 = 00000000 ( 00000004 )

    *************************************************************************

  FILE NAME : C:\Documents and Settings\Lane Kolbly\My Documents\GitHub\blindnxt\AT91SAM7S256\SAM7S256\Object\c_ioctrl.r79
  PROGRAM MODULE, NAME : c_ioctrl

  SEGMENTS IN THE MODULE
  ======================
DATA_Z
  Relative segment, address: 0000BAC0 - 0000BAC1 (0x2 bytes), align: 1
  Segment part 2.             Intra module refs:   cIOCtrl
                                                   cIOCtrlCtrl
           LOCAL                   ADDRESS         
           =====                   =======         
           IOMapIOCtrl             0000BAC0 
    -------------------------------------------------------------------------
DATA_Z
  Relative segment, address: 0000BAC3 - 0000BAC3 (0x1 bytes), align: 0
  Segment part 3.             Intra module refs:   cIOCtrl
           LOCAL                   ADDRESS         
           =====                   =======         
           VarsIOCtrl              0000BAC3 
    -------------------------------------------------------------------------
DATA_C
  Relative segment, address: 0011A7C0 - 0011A7F3 (0x34 bytes), align: 2
  Segment part 4.
           ENTRY                   ADDRESS         REF BY
           =====                   =======         ======
           cIOCtrl                 0011A7C0        Segment part 5 (m_sched)
    -------------------------------------------------------------------------
CODE
  Relative segment, address: 0010AE04 - 0010AE13 (0x10 bytes), align: 2
  Segment part 6.             Intra module refs:   cIOCtrl
           ENTRY                   ADDRESS         REF BY
           =====                   =======         ======
           cIOCtrlInit             0010AE05 
               stack 1 = 00000000 ( 00000004 )
    -------------------------------------------------------------------------
CODE
  Relative segment, address: 0010AE14 - 0010AE4F (0x3c bytes), align: 2
  Segment part 8.             Intra module refs:   cIOCtrl
           ENTRY                   ADDRESS         REF BY
           =====                   =======         ======
           cIOCtrlCtrl             0010AE15 
               stack 1 = 00000000 ( 00000004 )
    -------------------------------------------------------------------------
CODE
  Relative segment, address: 0010AE50 - 0010AE59 (0xa bytes), align: 2
  Segment part 10.            Intra module refs:   cIOCtrl
           ENTRY                   ADDRESS         REF BY
           =====                   =======         ======
           cIOCtrlExit             0010AE51 
               stack 1 = 00000000 ( 00000004 )

    *************************************************************************

  FILE NAME : C:\Documents and Settings\Lane Kolbly\My Documents\GitHub\blindnxt\AT91SAM7S256\SAM7S256\Object\c_loader.r79
  PROGRAM MODULE, NAME : c_loader

  SEGMENTS IN THE MODULE
  ======================
DATA_Z
  Relative segment, address: 0000A15C - 0000A17F (0x24 bytes), align: 2
  Segment part 2.             Intra module refs:   ?Subroutine7
                                                   Segment part 10
                                                   Segment part 16
                                                   cLoader
                                                   cLoaderFileRq
           LOCAL                   ADDRESS         
           =====                   =======         
           IOMapLoader             0000A174 
           VarsLoader              0000A15C 
           pHeaders                0000A17C 
    -------------------------------------------------------------------------
DATA_C
  Relative segment, address: 0011A7F4 - 0011A827 (0x34 bytes), align: 2
  Segment part 3.
           ENTRY                   ADDRESS         REF BY
           =====                   =======         ======
           cLoader                 0011A7F4        Segment part 5 (m_sched)
    -------------------------------------------------------------------------
CODE
  Relative segment, address: 0010AE5C - 0010AE7F (0x24 bytes), align: 2
  Segment part 5.             Intra module refs:   cLoader
           ENTRY                   ADDRESS         REF BY
           =====                   =======         ======
           cLoaderInit             0010AE5D 
               stack 1 = 00000000 ( 00000008 )
    -------------------------------------------------------------------------
CODE
  Relative segment, address: 0010AE80 - 0010AE81 (0x2 bytes), align: 2
  Segment part 7.             Intra module refs:   cLoader
           ENTRY                   ADDRESS         REF BY
           =====                   =======         ======
           cLoaderCtrl             0010AE81 
    -------------------------------------------------------------------------
CODE
  Relative segment, address: 0010AE84 - 0010B163 (0x2e0 bytes), align: 2
  Segment part 9.             Intra module refs:   cLoaderInit
           ENTRY                   ADDRESS         REF BY
           =====                   =======         ======
           cLoaderFileRq           0010AE85 
               stack 1 = 00000000 ( 00000040 )
    -------------------------------------------------------------------------
CODE
  Relative segment, address: 0010B164 - 0010B167 (0x4 bytes), align: 2
  Segment part 10.            Intra module refs:   cLoaderFileRq
                                                   cLoaderInit
    -------------------------------------------------------------------------
CODE
  Relative segment, address: 0010B168 - 0010B1B3 (0x4c bytes), align: 2
  Segment part 12.            Intra module refs:   cLoaderFileRq
           ENTRY                   ADDRESS         REF BY
           =====                   =======         ======
           cLoaderGetIoMapInfo     0010B169 
               stack 1 = 00000000 ( 00000014 )
    -------------------------------------------------------------------------
CODE
  Relative segment, address: 0010B1B4 - 0010B1BF (0xc bytes), align: 2
  Segment part 13.            Intra module refs:   cLoaderFileRq
                                                   cLoaderFindModule
                                                   cLoaderGetIoMapInfo
           LOCAL                   ADDRESS         
           =====                   =======         
           ?Subroutine7            0010B1B5 
    -------------------------------------------------------------------------
CODE
  Relative segment, address: 0010B1C0 - 0010B25D (0x9e bytes), align: 2
  Segment part 15.            Intra module refs:   cLoaderFileRq
           ENTRY                   ADDRESS         REF BY
           =====                   =======         ======
           cLoaderFindModule       0010B1C1 
               stack 1 = 00000000 ( 0000002C )
    -------------------------------------------------------------------------
CODE
  Relative segment, address: 0010B260 - 0010B263 (0x4 bytes), align: 2
  Segment part 16.            Intra module refs:   cLoaderFindModule
    -------------------------------------------------------------------------
CODE
  Relative segment, address: 0010B264 - 0010B2B3 (0x50 bytes), align: 2
  Segment part 18.            Intra module refs:   cLoaderFindModule
           ENTRY                   ADDRESS         REF BY
           =====                   =======         ======
           cLoaderGetModuleName    0010B265 
               stack 1 = 00000000 ( 00000010 )
    -------------------------------------------------------------------------
CODE
  Relative segment, address: 0010B2B4 - 0010B2B5 (0x2 bytes), align: 2
  Segment part 20.            Intra module refs:   cLoader
           ENTRY                   ADDRESS         REF BY
           =====                   =======         ======
           cLoaderExit             0010B2B5 

    *************************************************************************

  FILE NAME : C:\Documents and Settings\Lane Kolbly\My Documents\GitHub\blindnxt\AT91SAM7S256\SAM7S256\Object\c_lowspeed.r79
  PROGRAM MODULE, NAME : c_lowspeed

  SEGMENTS IN THE MODULE
  ======================
DATA_Z
  Relative segment, address: 0000A180 - 0000A2C3 (0x144 bytes), align: 2
  Segment part 2.             Intra module refs:   Segment part 11
                                                   cLowSpeed
                                                   cLowSpeedCtrl
           LOCAL                   ADDRESS         
           =====                   =======         
           IOMapLowSpeed           0000A180 
           VarsLowSpeed            0000A228 
    -------------------------------------------------------------------------
DATA_Z
  Relative segment, address: 0000A2C4 - 0000A2C7 (0x4 bytes), align: 2
  Segment part 3.             Intra module refs:   Segment part 10
           LOCAL                   ADDRESS         
           =====                   =======         
           pHeaders                0000A2C4 
    -------------------------------------------------------------------------
DATA_C
  Relative segment, address: 0011A828 - 0011A82B (0x4 bytes), align: 2
  Segment part 4.             Intra module refs:   cLowSpeedCtrl
           ENTRY                   ADDRESS         REF BY
           =====                   =======         ======
           LOWSPEED_CH_NUMBER      0011A828 
    -------------------------------------------------------------------------
DATA_C
  Relative segment, address: 0011A82C - 0011A85F (0x34 bytes), align: 2
  Segment part 5.
           ENTRY                   ADDRESS         REF BY
           =====                   =======         ======
           cLowSpeed               0011A82C        Segment part 5 (m_sched)
    -------------------------------------------------------------------------
CODE
  Relative segment, address: 0010B2B8 - 0010B2D1 (0x1a bytes), align: 2
  Segment part 7.             Intra module refs:   cLowSpeed
           ENTRY                   ADDRESS         REF BY
           =====                   =======         ======
           cLowSpeedInit           0010B2B9 
               stack 1 = 00000000 ( 00000004 )
    -------------------------------------------------------------------------
CODE
  Relative segment, address: 0010B2D4 - 0010B583 (0x2b0 bytes), align: 2
  Segment part 9.             Intra module refs:   cLowSpeed
           ENTRY                   ADDRESS         REF BY
           =====                   =======         ======
           cLowSpeedCtrl           0010B2D5 
               stack 1 = 00000000 ( 0000002C )
    -------------------------------------------------------------------------
CODE
  Relative segment, address: 0010B584 - 0010B587 (0x4 bytes), align: 2
  Segment part 10.            Intra module refs:   cLowSpeedCtrl
                                                   cLowSpeedInit
    -------------------------------------------------------------------------
CODE
  Relative segment, address: 0010B588 - 0010B58B (0x4 bytes), align: 2
  Segment part 11.            Intra module refs:   cLowSpeedCtrl
                                                   cLowSpeedInit
    -------------------------------------------------------------------------
CODE
  Relative segment, address: 0010B58C - 0010B595 (0xa bytes), align: 2
  Segment part 13.            Intra module refs:   cLowSpeed
           ENTRY                   ADDRESS         REF BY
           =====                   =======         ======
           cLowSpeedExit           0010B58D 
               stack 1 = 00000000 ( 00000004 )

    *************************************************************************

  FILE NAME : C:\Documents and Settings\Lane Kolbly\My Documents\GitHub\blindnxt\AT91SAM7S256\SAM7S256\Object\c_output.r79
  PROGRAM MODULE, NAME : c_output

  SEGMENTS IN THE MODULE
  ======================
DATA_Z
  Relative segment, address: 0000A2C8 - 0000A32B (0x64 bytes), align: 2
  Segment part 2.             Intra module refs:   Segment part 11
                                                   cOutput
           LOCAL                   ADDRESS         
           =====                   =======         
           IOMapOutput             0000A2C8 
    -------------------------------------------------------------------------
DATA_Z
  Relative segment, address: 0000BAC4 - 0000BAC5 (0x2 bytes), align: 0
  Segment part 3.             Intra module refs:   cOutput
                                                   cOutputInit
           LOCAL                   ADDRESS         
           =====                   =======         
           VarsOutput              0000BAC4 
    -------------------------------------------------------------------------
DATA_C
  Relative segment, address: 0011A860 - 0011A893 (0x34 bytes), align: 2
  Segment part 4.
           ENTRY                   ADDRESS         REF BY
           =====                   =======         ======
           cOutput                 0011A860        Segment part 5 (m_sched)
    -------------------------------------------------------------------------
CODE
  Relative segment, address: 0010B598 - 0010B5D7 (0x40 bytes), align: 2
  Segment part 6.             Intra module refs:   cOutput
           ENTRY                   ADDRESS         REF BY
           =====                   =======         ======
           cOutputInit             0010B599 
               stack 1 = 00000000 ( 0000000C )
    -------------------------------------------------------------------------
CODE
  Relative segment, address: 0010B5D8 - 0010B6D3 (0xfc bytes), align: 2
  Segment part 8.             Intra module refs:   cOutput
           ENTRY                   ADDRESS         REF BY
           =====                   =======         ======
           cOutputCtrl             0010B5D9 
               stack 1 = 00000000 ( 00000014 )
    -------------------------------------------------------------------------
CODE
  Relative segment, address: 0010B6D4 - 0010B735 (0x62 bytes), align: 2
  Segment part 10.            Intra module refs:   cOutputCtrl
           ENTRY                   ADDRESS         REF BY
           =====                   =======         ======
           cOutputUpdateIomap      0010B6D5 
               stack 1 = 00000000 ( 00000048 )
    -------------------------------------------------------------------------
CODE
  Relative segment, address: 0010B738 - 0010B73B (0x4 bytes), align: 2
  Segment part 11.            Intra module refs:   cOutputCtrl
                                                   cOutputInit
                                                   cOutputUpdateIomap
    -------------------------------------------------------------------------
CODE
  Relative segment, address: 0010B73C - 0010B745 (0xa bytes), align: 2
  Segment part 13.            Intra module refs:   cOutput
           ENTRY                   ADDRESS         REF BY
           =====                   =======         ======
           cOutputExit             0010B73D 
               stack 1 = 00000000 ( 00000004 )

    *************************************************************************

  FILE NAME : C:\Documents and Settings\Lane Kolbly\My Documents\GitHub\blindnxt\AT91SAM7S256\SAM7S256\Object\c_sound.r79
  PROGRAM MODULE, NAME : c_sound

  SEGMENTS IN THE MODULE
  ======================
DATA_C
  Relative segment, address: 0011A894 - 0011A8C7 (0x34 bytes), align: 2
  Segment part 4.
           ENTRY                   ADDRESS         REF BY
           =====                   =======         ======
           cSound                  0011A894        Segment part 5 (m_sched)
    -------------------------------------------------------------------------
CODE
  Relative segment, address: 0010B748 - 0010B763 (0x1c bytes), align: 2
  Segment part 6.             Intra module refs:   cSoundCtrl
           ENTRY                   ADDRESS         REF BY
           =====                   =======         ======
           cSoundFile              0010B749 
               stack 1 = 00000000 ( 00000008 )
    -------------------------------------------------------------------------
CODE
  Relative segment, address: 0010B764 - 0010B78B (0x28 bytes), align: 2
  Segment part 8.             Intra module refs:   cSound
           ENTRY                   ADDRESS         REF BY
           =====                   =======         ======
           cSoundInit              0010B765 
               stack 1 = 00000000 ( 00000004 )
    -------------------------------------------------------------------------
CODE
  Relative segment, address: 0010B78C - 0010B78F (0x4 bytes), align: 2
  Segment part 9.             Intra module refs:   cSoundInit
    -------------------------------------------------------------------------
CODE
  Relative segment, address: 0010B790 - 0010B793 (0x4 bytes), align: 2
  Segment part 10.            Intra module refs:   cSoundInit
    -------------------------------------------------------------------------
CODE
  Relative segment, address: 0010B794 - 0010BB2B (0x398 bytes), align: 2
  Segment part 12.            Intra module refs:   cSound
           ENTRY                   ADDRESS         REF BY
           =====                   =======         ======
           cSoundCtrl              0010B795 
               stack 1 = 00000000 ( 00000034 )
    -------------------------------------------------------------------------
DATA_Z
  Relative segment, address: 0000A32C - 0000A367 (0x3c bytes), align: 2
  Segment part 2.             Intra module refs:   Segment part 9
                                                   cSound
                                                   cSoundCtrl
                                                   cSoundFile
           LOCAL                   ADDRESS         
           =====                   =======         
           cSoundCtrl::FileFormat
                                   0000A34C 
           cSoundCtrl::SoundFilename
                                   0000A354 
           IOMapSound              0000A32C 
           pHeaders                0000A350 
    -------------------------------------------------------------------------
DATA_Z
  Relative segment, address: 0000A368 - 0000A437 (0xd0 bytes), align: 2
  Segment part 3.             Intra module refs:   Segment part 10
                                                   cSound
                                                   cSoundCtrl
           LOCAL                   ADDRESS         
           =====                   =======         
           VarsSound               0000A368 
    -------------------------------------------------------------------------
CODE
  Relative segment, address: 0010BB2C - 0010BB35 (0xa bytes), align: 2
  Segment part 14.            Intra module refs:   cSound
           ENTRY                   ADDRESS         REF BY
           =====                   =======         ======
           cSoundExit              0010BB2D 
               stack 1 = 00000000 ( 00000004 )

    *************************************************************************

  FILE NAME : C:\Documents and Settings\Lane Kolbly\My Documents\GitHub\blindnxt\AT91SAM7S256\SAM7S256\Object\c_ui.r79
  PROGRAM MODULE, NAME : c_ui

  SEGMENTS IN THE MODULE
  ======================
DATA_Z
  Relative segment, address: 0000A438 - 0000A8BB (0x484 bytes), align: 2
  Segment part 21.            Intra module refs:   ?Subroutine71
                                                   ?Subroutine72
                                                   Segment part 105
                                                   Segment part 122
                                                   Segment part 125
                                                   Segment part 133
                                                   Segment part 137
                                                   Segment part 146
                                                   Segment part 154
                                                   Segment part 193
                                                   Segment part 201
                                                   Segment part 209
                                                   Segment part 215
                                                   Segment part 222
                                                   Segment part 244
                                                   Segment part 248
                                                   Segment part 262
                                                   Segment part 263
                                                   Segment part 266
                                                   Segment part 276
                                                   Segment part 279
                                                   Segment part 281
                                                   Segment part 288
                                                   Segment part 294
                                                   Segment part 305
                                                   Segment part 306
                                                   Segment part 307
                                                   Segment part 308
                                                   Segment part 309
                                                   Segment part 312
                                                   Segment part 313
                                                   Segment part 315
                                                   Segment part 319
                                                   Segment part 320
                                                   Segment part 321
                                                   Segment part 322
                                                   Segment part 324
                                                   Segment part 327
                                                   Segment part 328
                                                   Segment part 329
                                                   Segment part 330
                                                   Segment part 331
                                                   Segment part 332
                                                   Segment part 333
                                                   Segment part 340
                                                   Segment part 341
                                                   Segment part 344
                                                   Segment part 345
                                                   Segment part 346
                                                   Segment part 347
                                                   Segment part 348
                                                   Segment part 349
                                                   Segment part 350
                                                   Segment part 351
                                                   Segment part 368
                                                   Segment part 373
                                                   Segment part 374
                                                   Segment part 375
                                                   Segment part 376
                                                   Segment part 378
                                                   Segment part 379
                                                   Segment part 389
                                                   Segment part 393
                                                   Segment part 399
                                                   Segment part 74
                                                   cUi
                                                   cUiBTCommand
                                                   cUiBtConnect
                                                   cUiBtConnectList
                                                   cUiBtDeviceList
                                                   cUiCtrl
                                                   cUiDataLogging
                                                   cUiFeedback
                                                   cUiFileRun
                                                   cUiFilesDelete
                                                   cUiMenuCallFunction
                                                   cUiMenuPrev
                                                   cUiMenuSearchSensorIcon
                                                   cUiOnBrickProgramming
                                                   cUiRunning
                                                   cUiUpdateSensor
                                                   cUiView
           LOCAL                   ADDRESS         
           =====                   =======         
           IOMapUi                 0000A894 
           VarsUi                  0000A438 
    -------------------------------------------------------------------------
CODE
  Relative segment, address: 0010BB38 - 0010BB43 (0xc bytes), align: 2
  Segment part 69.            Intra module refs:   cUiCtrl
                                                   cUiLoadLevel
                                                   cUiMenuNextFile
                                                   cUiMenuPrevFile
           ENTRY                   ADDRESS         REF BY
           =====                   =======         ======
           cUiGetMenuPointer       0010BB39 
    -------------------------------------------------------------------------
CODE
  Relative segment, address: 0010BB44 - 0010BB67 (0x24 bytes), align: 2
  Segment part 71.            Intra module refs:   cUiBtDeviceList
                                                   cUiDataLogging
                                                   cUiFeedback
                                                   cUiFileRun
                                                   cUiFilesDelete
                                                   cUiGetUserString
                                                   cUiOnBrickProgramming
                                                   cUiPowerOffTime
                                                   cUiView
           ENTRY                   ADDRESS         REF BY
           =====                   =======         ======
           cUiGetString            0010BB45 
               stack 1 = 00000000 ( 00000004 )
    -------------------------------------------------------------------------
CODE
  Relative segment, address: 0010BB68 - 0010BC9F (0x138 bytes), align: 2
  Segment part 73.            Intra module refs:   TestPrg
                                                   cUiBtSearch
                                                   cUiCtrl
                                                   cUiDataLogging
                                                   cUiFileRun
                                                   cUiGetUserString
                                                   cUiOff
                                                   cUiView
           ENTRY                   ADDRESS         REF BY
           =====                   =======         ======
           cUiReadButtons          0010BB69 
               stack 1 = 00000000 ( 00000014 )
    -------------------------------------------------------------------------
CODE
  Relative segment, address: 0010BCA0 - 0010BCA3 (0x4 bytes), align: 2
  Segment part 74.            Intra module refs:   cUiReadButtons
    -------------------------------------------------------------------------
CODE
  Relative segment, address: 0010BCA4 - 0010BCA7 (0x4 bytes), align: 2
  Segment part 75.            Intra module refs:   cUiReadButtons
    -------------------------------------------------------------------------
CODE
  Relative segment, address: 0010BCA8 - 0010BCAB (0x4 bytes), align: 2
  Segment part 76.            Intra module refs:   cUiReadButtons
    -------------------------------------------------------------------------
CODE
  Relative segment, address: 0010BCAC - 0010BCAF (0x4 bytes), align: 2
  Segment part 77.            Intra module refs:   cUiReadButtons
    -------------------------------------------------------------------------
CODE
  Relative segment, address: 0010BCB0 - 0010BCB3 (0x4 bytes), align: 2
  Segment part 78.            Intra module refs:   cUiReadButtons
    -------------------------------------------------------------------------
CODE
  Relative segment, address: 0010BCB4 - 0010BCB7 (0x4 bytes), align: 2
  Segment part 79.            Intra module refs:   cUiReadButtons
    -------------------------------------------------------------------------
CODE
  Relative segment, address: 0010BCB8 - 0010BCBB (0x4 bytes), align: 2
  Segment part 80.            Intra module refs:   cUiReadButtons
    -------------------------------------------------------------------------
CODE
  Relative segment, address: 0010BCBC - 0010BCD1 (0x16 bytes), align: 2
  Segment part 82.            Intra module refs:   cUiBtConnect
                                                   cUiBtConnectList
                                                   cUiBtDeviceList
                                                   cUiFileList
                                                   cUiPowerOffTime
                                                   cUiVolume
           ENTRY                   ADDRESS         REF BY
           =====                   =======         ======
           cUiListLeft             0010BCBD 
               stack 1 = 00000000 ( 00000004 )
    -------------------------------------------------------------------------
CODE
  Relative segment, address: 0010BCD4 - 0010BCE7 (0x14 bytes), align: 2
  Segment part 84.            Intra module refs:   cUiBtConnect
                                                   cUiBtConnectList
                                                   cUiBtDeviceList
                                                   cUiFileList
                                                   cUiPowerOffTime
                                                   cUiVolume
           ENTRY                   ADDRESS         REF BY
           =====                   =======         ======
           cUiListRight            0010BCD5 
               stack 1 = 00000000 ( 00000004 )
    -------------------------------------------------------------------------
CODE
  Relative segment, address: 0010BCE8 - 0010BCED (0x6 bytes), align: 2
  Segment part 85.            Intra module refs:   cUiListLeft
                                                   cUiListRight
           LOCAL                   ADDRESS         
           =====                   =======         
           ?Subroutine69           0010BCE9 
    -------------------------------------------------------------------------
CODE
  Relative segment, address: 0010BCF0 - 0010BD37 (0x48 bytes), align: 2
  Segment part 87.            Intra module refs:   cUiBtConnect
                                                   cUiBtConnectList
                                                   cUiBtDeviceList
                                                   cUiFileList
           ENTRY                   ADDRESS         REF BY
           =====                   =======         ======
           cUiListCalc             0010BCF1 
               stack 1 = 00000000 ( 00000018 )
    -------------------------------------------------------------------------
CODE
  Relative segment, address: 0010BD38 - 0010BD6F (0x38 bytes), align: 2
  Segment part 89.            Intra module refs:   cUiDataLogging
           ENTRY                   ADDRESS         REF BY
           =====                   =======         ======
           cUiMenuSearchSensorIcon
                                   0010BD39 
               stack 1 = 00000000 ( 0000000C )
    -------------------------------------------------------------------------
CODE
  Relative segment, address: 0010BD70 - 0010BD85 (0x16 bytes), align: 2
  Segment part 91.            Intra module refs:   cUiGetMenuItemIndex
                                                   cUiLoadLevel
                                                   cUiMenuGetNoOfMenus
           ENTRY                   ADDRESS         REF BY
           =====                   =======         ======
           cUiMenuGetId            0010BD71 
    -------------------------------------------------------------------------
CODE
  Relative segment, address: 0010BD88 - 0010BDA7 (0x20 bytes), align: 2
  Segment part 93.            Intra module refs:   cUiGetMenuItemIndex
                                                   cUiLoadLevel
                                                   cUiMenuGetNoOfMenus
           ENTRY                   ADDRESS         REF BY
           =====                   =======         ======
           cUiMenuGetSpecialMask   0010BD89 
               stack 1 = 00000000 ( 00000004 )
    -------------------------------------------------------------------------
CODE
  Relative segment, address: 0010BDA8 - 0010BDBD (0x16 bytes), align: 2
  Segment part 95.            Intra module refs:   cUiCtrl
                                                   cUiDataLogging
           ENTRY                   ADDRESS         REF BY
           =====                   =======         ======
           cUiMenuGetIconImage     0010BDA9 
               stack 1 = 00000000 ( 00000004 )
    -------------------------------------------------------------------------
CODE
  Relative segment, address: 0010BDC0 - 0010BDC3 (0x4 bytes), align: 2
  Segment part 96.            Intra module refs:   cUiMenuGetIconImage
    -------------------------------------------------------------------------
CODE
  Relative segment, address: 0010BDC4 - 0010BDE3 (0x20 bytes), align: 2
  Segment part 98.            Intra module refs:   cUiMenuIdValid
           ENTRY                   ADDRESS         REF BY
           =====                   =======         ======
           cUiMenuMotherId         0010BDC5 
               stack 1 = 00000000 ( 00000004 )
    -------------------------------------------------------------------------
CODE
  Relative segment, address: 0010BDE4 - 0010BE47 (0x64 bytes), align: 2
  Segment part 100.           Intra module refs:   cUiGetMenuItemIndex
                                                   cUiMenuGetNoOfMenus
           ENTRY                   ADDRESS         REF BY
           =====                   =======         ======
           cUiMenuIdValid          0010BDE5 
               stack 1 = 00000000 ( 0000001C )
    -------------------------------------------------------------------------
CODE
  Relative segment, address: 0010BE48 - 0010BEB9 (0x72 bytes), align: 2
  Segment part 102.           Intra module refs:   cUiLoadLevel
           ENTRY                   ADDRESS         REF BY
           =====                   =======         ======
           cUiMenuGetNoOfMenus     0010BE49 
               stack 1 = 00000000 ( 00000020 )
    -------------------------------------------------------------------------
CODE
  Relative segment, address: 0010BEBC - 0010BF41 (0x86 bytes), align: 2
  Segment part 104.           Intra module refs:   cUiCtrl
                                                   cUiLoadLevel
           ENTRY                   ADDRESS         REF BY
           =====                   =======         ======
           cUiGetMenuItemIndex     0010BEBD 
               stack 1 = 00000000 ( 00000024 )
    -------------------------------------------------------------------------
CODE
  Relative segment, address: 0010BF44 - 0010BF47 (0x4 bytes), align: 2
  Segment part 105.           Intra module refs:   cUiGetMenuItemIndex
                                                   cUiMenuGetNoOfMenus
    -------------------------------------------------------------------------
CODE
  Relative segment, address: 0010BF48 - 0010BF4B (0x4 bytes), align: 2
  Segment part 106.           Intra module refs:   cUiGetMenuItemIndex
                                                   cUiMenuGetNoOfMenus
    -------------------------------------------------------------------------
CODE
  Relative segment, address: 0010BF4C - 0010BF4F (0x4 bytes), align: 2
  Segment part 107.           Intra module refs:   cUiGetMenuItemIndex
                                                   cUiMenuGetNoOfMenus
    -------------------------------------------------------------------------
CODE
  Relative segment, address: 0010BF50 - 0010BF57 (0x8 bytes), align: 2
  Segment part 110.           Intra module refs:   cUiBTConnectRequest
                                                   cUiBTGetDeviceIndex
                                                   cUiBtConnect
                                                   cUiBtConnectList
                                                   cUiBtOn
                                                   cUiDataLogging
                                                   cUiFeedback
                                                   cUiFileList
                                                   cUiFileRun
                                                   cUiFilesDelete
                                                   cUiFindFileType
                                                   cUiGetMenuItemIndex
                                                   cUiOff
                                                   cUiOnBrickProgramming
                                                   cUiReadButtons
                                                   cUiReadLowspeed
                                                   cUiView
           LOCAL                   ADDRESS         
           =====                   =======         
           ?Subroutine70           0010BF51 
    -------------------------------------------------------------------------
CODE
  Relative segment, address: 0010BF58 - 0010C153 (0x1fc bytes), align: 2
  Segment part 112.           Intra module refs:   cUiCtrl
           ENTRY                   ADDRESS         REF BY
           =====                   =======         ======
           cUiUpdateStatus         0010BF59 
               stack 1 = 00000000 ( 00000020 )
    -------------------------------------------------------------------------
CODE
  Relative segment, address: 0010C154 - 0010C157 (0x4 bytes), align: 2
  Segment part 113.           Intra module refs:   cUiUpdateStatus
    -------------------------------------------------------------------------
CODE
  Relative segment, address: 0010C158 - 0010C15B (0x4 bytes), align: 2
  Segment part 114.           Intra module refs:   cUiUpdateStatus
    -------------------------------------------------------------------------
CODE
  Relative segment, address: 0010C15C - 0010C15F (0x4 bytes), align: 2
  Segment part 115.           Intra module refs:   cUiUpdateStatus
    -------------------------------------------------------------------------
CODE
  Relative segment, address: 0010C160 - 0010C173 (0x14 bytes), align: 2
  Segment part 117.           Intra module refs:   cUiCtrl
                                                   cUiMenuEnter
                                                   cUiMenuExit
           ENTRY                   ADDRESS         REF BY
           =====                   =======         ======
           cUiMenuCallFunction     0010C161 
               stack 1 = 00000000 ( 00000004 )
    -------------------------------------------------------------------------
CODE
  Relative segment, address: 0010C174 - 0010C1CF (0x5c bytes), align: 2
  Segment part 119.           Intra module refs:   cUiMenuEnter
                                                   cUiMenuExit
           ENTRY                   ADDRESS         REF BY
           =====                   =======         ======
           cUiMenuNextFile         0010C175 
               stack 1 = 00000000 ( 00000010 )
    -------------------------------------------------------------------------
CODE
  Relative segment, address: 0010C1D0 - 0010C1FF (0x30 bytes), align: 2
  Segment part 121.           Intra module refs:   cUiDataLogging
                                                   cUiMenuEnter
                                                   cUiMenuExit
                                                   cUiOnBrickProgramming
           ENTRY                   ADDRESS         REF BY
           =====                   =======         ======
           cUiMenuPrevFile         0010C1D1 
               stack 1 = 00000000 ( 00000008 )
    -------------------------------------------------------------------------
CODE
  Relative segment, address: 0010C200 - 0010C203 (0x4 bytes), align: 2
  Segment part 122.           Intra module refs:   cUiMenuNextFile
                                                   cUiMenuPrevFile
                                                   cUiUpdateStatus
    -------------------------------------------------------------------------
CODE
  Relative segment, address: 0010C204 - 0010C229 (0x26 bytes), align: 2
  Segment part 124.           Intra module refs:   cUiMenuEnter
                                                   cUiMenuExit
           ENTRY                   ADDRESS         REF BY
           =====                   =======         ======
           cUiMenuNext             0010C205 
               stack 1 = 00000000 ( 00000004 )
    -------------------------------------------------------------------------
CODE
  Relative segment, address: 0010C22C - 0010C22F (0x4 bytes), align: 2
  Segment part 125.           Intra module refs:   cUiMenuNext
    -------------------------------------------------------------------------
CODE
  Relative segment, address: 0010C230 - 0010C247 (0x18 bytes), align: 2
  Segment part 127.           Intra module refs:   cUiDataLogging
                                                   cUiMenuExit
           ENTRY                   ADDRESS         REF BY
           =====                   =======         ======
           cUiMenuPrev             0010C231 
               stack 1 = 00000000 ( 00000004 )
    -------------------------------------------------------------------------
CODE
  Relative segment, address: 0010C248 - 0010C29D (0x56 bytes), align: 2
  Segment part 129.           Intra module refs:   cUiCtrl
                                                   cUiReadButtons
           ENTRY                   ADDRESS         REF BY
           =====                   =======         ======
           cUiMenuEnter            0010C249 
               stack 1 = 00000000 ( 0000000C )
    -------------------------------------------------------------------------
CODE
  Relative segment, address: 0010C2A0 - 0010C39B (0xfc bytes), align: 2
  Segment part 131.           Intra module refs:   cUiCtrl
           ENTRY                   ADDRESS         REF BY
           =====                   =======         ======
           cUiMenuExit             0010C2A1 
               stack 1 = 00000000 ( 00000010 )
    -------------------------------------------------------------------------
CODE
  Relative segment, address: 0010C39C - 0010C3A1 (0x6 bytes), align: 2
  Segment part 132.           Intra module refs:   cUiMenuExit
                                                   cUiMenuNextFile
           LOCAL                   ADDRESS         
           =====                   =======         
           ?Subroutine75           0010C39D 
    -------------------------------------------------------------------------
CODE
  Relative segment, address: 0010C3A4 - 0010C3A7 (0x4 bytes), align: 2
  Segment part 133.           Intra module refs:   cUiMenuEnter
                                                   cUiMenuExit
    -------------------------------------------------------------------------
CODE
  Relative segment, address: 0010C3A8 - 0010C3AB (0x4 bytes), align: 2
  Segment part 134.           Intra module refs:   cUiMenuEnter
                                                   cUiMenuExit
    -------------------------------------------------------------------------
CODE
  Relative segment, address: 0010C3AC - 0010C469 (0xbe bytes), align: 2
  Segment part 136.           Intra module refs:   cUiCtrl
                                                   cUiReadButtons
           ENTRY                   ADDRESS         REF BY
           =====                   =======         ======
           cUiLoadLevel            0010C3AD 
               stack 1 = 00000000 ( 00000014 )
    -------------------------------------------------------------------------
CODE
  Relative segment, address: 0010C46C - 0010C46F (0x4 bytes), align: 2
  Segment part 137.           Intra module refs:   cUiLoadLevel
    -------------------------------------------------------------------------
CODE
  Relative segment, address: 0010C470 - 0010C473 (0x4 bytes), align: 2
  Segment part 138.           Intra module refs:   cUiLoadLevel
                                                   cUiMenuNextFile
                                                   cUiMenuPrevFile
    -------------------------------------------------------------------------
CODE
  Relative segment, address: 0010C474 - 0010C509 (0x96 bytes), align: 2
  Segment part 140.           Intra module refs:   cUiUpdateSensor
           ENTRY                   ADDRESS         REF BY
           =====                   =======         ======
           cUiWriteLowspeed        0010C475 
               stack 1 = 00000000 ( 00000018 )
    -------------------------------------------------------------------------
CODE
  Relative segment, address: 0010C50C - 0010C5A1 (0x96 bytes), align: 2
  Segment part 142.           Intra module refs:   cUiUpdateSensor
           ENTRY                   ADDRESS         REF BY
           =====                   =======         ======
           cUiReadLowspeed         0010C50D 
               stack 1 = 00000000 ( 00000014 )
    -------------------------------------------------------------------------
CODE
  Relative segment, address: 0010C5A4 - 0010C5A7 (0x4 bytes), align: 2
  Segment part 143.           Intra module refs:   cUiReadLowspeed
                                                   cUiWriteLowspeed
    -------------------------------------------------------------------------
CODE
  Relative segment, address: 0010C5A8 - 0010C84F (0x2a8 bytes), align: 2
  Segment part 145.           Intra module refs:   cUiDataLogging
                                                   cUiView
           ENTRY                   ADDRESS         REF BY
           =====                   =======         ======
           cUiUpdateSensor         0010C5A9 
               stack 1 = 00000000 ( 0000001C )
    -------------------------------------------------------------------------
CODE
  Relative segment, address: 0010C850 - 0010C853 (0x4 bytes), align: 2
  Segment part 146.           Intra module refs:   cUiUpdateSensor
    -------------------------------------------------------------------------
CODE
  Relative segment, address: 0010C854 - 0010C857 (0x4 bytes), align: 2
  Segment part 151.           Intra module refs:   cUiUpdateSensor
    -------------------------------------------------------------------------
DATA_C
  Relative segment, address: 0011A8C8 - 0011B9EB (0x1124 bytes), align: 2
  Segment part 3.             Intra module refs:   Segment part 155
                                                   Segment part 166
                                                   Segment part 196
                                                   Segment part 211
                                                   Segment part 225
                                                   Segment part 243
                                                   Segment part 252
                                                   Segment part 259
                                                   Segment part 264
                                                   Segment part 272
                                                   Segment part 280
                                                   Segment part 284
                                                   Segment part 298
                                                   Segment part 299
                                                   Segment part 302
                                                   Segment part 311
                                                   Segment part 314
                                                   Segment part 326
                                                   Segment part 335
                                                   Segment part 359
                                                   Segment part 369
                                                   Segment part 395
                                                   Segment part 78
                                                   cUiBtConnect
                                                   cUiBtSearch
                                                   cUiCtrl
                                                   cUiDataLogging
                                                   cUiFilesDelete
                                                   cUiOnBrickProgramming
           ENTRY                   ADDRESS         REF BY
           =====                   =======         ======
           COLORNAME               0011B9B0 
           Connections             0011B648 
           Cursor                  0011B268 
           DEFAULT_PIN_CODE        0011B7B8 
           DEFAULT_PROGRAM_NAME    0011B794 
           Devices                 0011B520 
           Display                 0011A9D0 
           Fail                    0011B2C8 
           Font                    0011AD58 
           Info                    0011B318 
           LowBattery              0011AAB0 
           NONVOLATILE_NAME        0011B788 
           PowerOffTimeSteps       0011A8D0 
           SENSORDIRNAME           0011B848 
           SENSORDIVIDER           0011A8D8 
           SENSORFORMAT            0011B7D0 
           SENSORFORMAT2           0011B968 
           SENSORUNITNAME          0011B92C 
           Status                  0011B368 
           Step                    0011AFA0 
           TEMP_DATALOG_FILENAME   0011B7B4 
           TEMP_PROGRAM_FILENAME   0011B7A0 
           TXT_FILETYPE            0011A8C8 
           TXT_FILE_EXT            0011B770 
           TXT_INVALID_SENSOR      0011B7C0 
           VM_PROGRAM_READER       0011B7A8 
           Wait                    0011B278 
    -------------------------------------------------------------------------
DATA_C
  Relative segment, address: 0011B9EC - 0011B9FB (0x10 bytes), align: 2
  Segment part 5.             Intra module refs:   ?Subroutine77
    -------------------------------------------------------------------------
DATA_C
  Relative segment, address: 0011B9FC - 0011BA13 (0x18 bytes), align: 2
  Segment part 6.             Intra module refs:   GetAVRBuild
    -------------------------------------------------------------------------
DATA_C
  Relative segment, address: 0011BA14 - 0011BA27 (0x14 bytes), align: 2
  Segment part 7.             Intra module refs:   ?Subroutine80
    -------------------------------------------------------------------------
CODE
  Relative segment, address: 0010C858 - 0010C937 (0xe0 bytes), align: 2
  Segment part 153.           Intra module refs:   cUiDataLogging
                                                   cUiView
           ENTRY                   ADDRESS         REF BY
           =====                   =======         ======
           cUiPrintSensorInDisplayBuffer
                                   0010C859 
               stack 1 = 00000000 ( 00000028 )
    -------------------------------------------------------------------------
CODE
  Relative segment, address: 0010C938 - 0010C93B (0x4 bytes), align: 2
  Segment part 154.           Intra module refs:   cUiPrintSensorInDisplayBuffer
    -------------------------------------------------------------------------
CODE
  Relative segment, address: 0010C93C - 0010C93F (0x4 bytes), align: 2
  Segment part 155.           Intra module refs:   cUiPrintSensorInDisplayBuffer
    -------------------------------------------------------------------------
CODE
  Relative segment, address: 0010C940 - 0010C943 (0x4 bytes), align: 2
  Segment part 156.           Intra module refs:   cUiPrintSensorInDisplayBuffer
    -------------------------------------------------------------------------
CODE
  Relative segment, address: 0010C944 - 0010C967 (0x24 bytes), align: 2
  Segment part 158.           Intra module refs:   cUiDataLogging
                                                   cUiView
           ENTRY                   ADDRESS         REF BY
           =====                   =======         ======
           cUiReleaseSensors       0010C945 
               stack 1 = 00000000 ( 00000004 )
    -------------------------------------------------------------------------
CODE
  Relative segment, address: 0010C968 - 0010C9B7 (0x50 bytes), align: 2
  Segment part 160.           Intra module refs:   cUiBTCommand
           ENTRY                   ADDRESS         REF BY
           =====                   =======         ======
           cUiBTGetDeviceType      0010C969 
               stack 1 = 00000000 ( 00000008 )
    -------------------------------------------------------------------------
CODE
  Relative segment, address: 0010C9B8 - 0010CA37 (0x80 bytes), align: 2
  Segment part 162.           Intra module refs:   cUiBTCommand
                                                   cUiBtConnect
                                                   cUiBtDeviceList
           ENTRY                   ADDRESS         REF BY
           =====                   =======         ======
           cUiBTGetDeviceIndex     0010C9B9 
               stack 1 = 00000000 ( 00000014 )
    -------------------------------------------------------------------------
CODE
  Relative segment, address: 0010CA38 - 0010CA3B (0x4 bytes), align: 2
  Segment part 163.           Intra module refs:   cUiBTGetDeviceIndex
    -------------------------------------------------------------------------
CODE
  Relative segment, address: 0010CA3C - 0010CB7B (0x140 bytes), align: 2
  Segment part 165.           Intra module refs:   cUiBtConnect
                                                   cUiBtConnectList
                                                   cUiBtDeviceList
                                                   cUiBtSearch
           ENTRY                   ADDRESS         REF BY
           =====                   =======         ======
           cUiBTCommand            0010CA3D 
               stack 1 = 00000000 ( 0000001C )
    -------------------------------------------------------------------------
CODE
  Relative segment, address: 0010CB7C - 0010CB7F (0x4 bytes), align: 2
  Segment part 166.           Intra module refs:   cUiBTCommand
    -------------------------------------------------------------------------
CODE
  Relative segment, address: 0010CB80 - 0010CB83 (0x4 bytes), align: 2
  Segment part 167.           Intra module refs:   cUiBTCommand
                                                   cUiReleaseSensors
    -------------------------------------------------------------------------
DATA_C
  Relative segment, address: 0011BA28 - 0011BA67 (0x40 bytes), align: 2
  Segment part 8.             Intra module refs:   ?Subroutine74
           ENTRY                   ADDRESS         REF BY
           =====                   =======         ======
           MONTH                   0011BA28 
    -------------------------------------------------------------------------
DATA_C
  Relative segment, address: 0011BA68 - 0011BA7B (0x14 bytes), align: 2
  Segment part 9.             Intra module refs:   GetProtocolVersion
    -------------------------------------------------------------------------
DATA_C
  Relative segment, address: 0011BA7C - 0011BAAF (0x34 bytes), align: 2
  Segment part 24.
           ENTRY                   ADDRESS         REF BY
           =====                   =======         ======
           cUi                     0011BA7C        Segment part 5 (m_sched)
    -------------------------------------------------------------------------
DATA_C
  Relative segment, address: 0011BAB0 - 0011BF37 (0x488 bytes), align: 2
  Segment part 25.            Intra module refs:   cUiRunning
           ENTRY                   ADDRESS         REF BY
           =====                   =======         ======
           Running                 0011BAB0 
    -------------------------------------------------------------------------
DATA_C
  Relative segment, address: 0011BF38 - 0011BF57 (0x20 bytes), align: 2
  Segment part 26.            Intra module refs:   ?Subroutine76
           ENTRY                   ADDRESS         REF BY
           =====                   =======         ======
           Port                    0011BF38 
    -------------------------------------------------------------------------
CODE
  Relative segment, address: 0010CB84 - 0010CB93 (0x10 bytes), align: 2
  Segment part 169.           Intra module refs:   TestPrg
           ENTRY                   ADDRESS         REF BY
           =====                   =======         ======
           GetProtocolVersion      0010CB85 
               stack 1 = 00000000 ( 00000004 )
    -------------------------------------------------------------------------
CODE
  Relative segment, address: 0010CB94 - 0010CC6F (0xdc bytes), align: 2
  Segment part 171.           Intra module refs:   TestPrg
           ENTRY                   ADDRESS         REF BY
           =====                   =======         ======
           GetARMBuild             0010CB95 
               stack 1 = 00000000 ( 00000024 )
    -------------------------------------------------------------------------
CODE
  Relative segment, address: 0010CC70 - 0010CC7B (0xc bytes), align: 2
  Segment part 172.           Intra module refs:   GetARMBuild
                                                   cUiUpdateStatus
           LOCAL                   ADDRESS         
           =====                   =======         
           ?Subroutine74           0010CC71 
    -------------------------------------------------------------------------
CODE
  Relative segment, address: 0010CC7C - 0010CC93 (0x18 bytes), align: 2
  Segment part 174.           Intra module refs:   TestPrg
           ENTRY                   ADDRESS         REF BY
           =====                   =======         ======
           GetBC4Build             0010CC7D 
               stack 1 = 00000000 ( 00000004 )
    -------------------------------------------------------------------------
CODE
  Relative segment, address: 0010CC94 - 0010CC9F (0xc bytes), align: 2
  Segment part 175.           Intra module refs:   GetAVRBuild
                                                   GetBC4Build
                                                   GetProtocolVersion
           LOCAL                   ADDRESS         
           =====                   =======         
           ?Subroutine80           0010CC95 
    -------------------------------------------------------------------------
CODE
  Relative segment, address: 0010CCA0 - 0010CCA3 (0x4 bytes), align: 2
  Segment part 176.           Intra module refs:   GetBC4Build
    -------------------------------------------------------------------------
CODE
  Relative segment, address: 0010CCA4 - 0010CCBB (0x18 bytes), align: 2
  Segment part 178.           Intra module refs:   TestPrg
           ENTRY                   ADDRESS         REF BY
           =====                   =======         ======
           GetAVRBuild             0010CCA5 
               stack 1 = 00000000 ( 00000004 )
    -------------------------------------------------------------------------
CODE
  Relative segment, address: 0010CCBC - 0010CCBF (0x4 bytes), align: 2
  Segment part 179.           Intra module refs:   GetAVRBuild
    -------------------------------------------------------------------------
CODE
  Relative segment, address: 0010CCC0 - 0010CD03 (0x44 bytes), align: 2
  Segment part 181.           Intra module refs:   TestPrg
           ENTRY                   ADDRESS         REF BY
           =====                   =======         ======
           GetBC4Address           0010CCC1 
               stack 1 = 00000000 ( 00000014 )
    -------------------------------------------------------------------------
CODE
  Relative segment, address: 0010CD04 - 0010CD0F (0xc bytes), align: 2
  Segment part 182.           Intra module refs:   GetBC4Address
                                                   cUiCtrl
                                                   cUiLoadLevel
                                                   cUiNVRead
                                                   cUiRunning
           LOCAL                   ADDRESS         
           =====                   =======         
           ?Subroutine77           0010CD05 
    -------------------------------------------------------------------------
CODE
  Relative segment, address: 0010CD10 - 0010CD13 (0x4 bytes), align: 2
  Segment part 183.           Intra module refs:   GetBC4Address
                                                   GetBC4Build
    -------------------------------------------------------------------------
CODE
  Relative segment, address: 0010CD14 - 0010CDDF (0xcc bytes), align: 2
  Segment part 185.           Intra module refs:   Segment part 67
           ENTRY                   ADDRESS         REF BY
           =====                   =======         ======
           TestPrg                 0010CD15 
               stack 1 = 00000000 ( 0000000C )
    -------------------------------------------------------------------------
CODE
  Relative segment, address: 0010CDE0 - 0010CDEF (0x10 bytes), align: 2
  Segment part 186.           Intra module refs:   TestPrg
                                                   cUiMenuSearchSensorIcon
           LOCAL                   ADDRESS         
           =====                   =======         
           ?Subroutine71           0010CDE1 
    -------------------------------------------------------------------------
DATA_I
  Relative segment, address: 00000378 - 0000044B (0xd4 bytes), align: 2
  Segment part 22.            Intra module refs:   ?Subroutine72
                                                   Segment part 114
                                                   Segment part 143
                                                   Segment part 151
                                                   Segment part 163
                                                   Segment part 167
                                                   Segment part 183
                                                   Segment part 198
                                                   Segment part 205
                                                   Segment part 217
                                                   Segment part 228
                                                   Segment part 235
                                                   Segment part 247
                                                   Segment part 255
                                                   Segment part 269
                                                   Segment part 277
                                                   Segment part 291
                                                   Segment part 300
                                                   Segment part 316
                                                   Segment part 323
                                                   Segment part 362
                                                   Segment part 380
                                                   Segment part 388
                                                   Segment part 396
                                                   Segment part 77
                                                   Segment part 80
                                                   cUiBtConnect
                                                   cUiCtrl
                                                   cUiDataLogging
                                                   cUiFileRun
                                                   cUiOnBrickProgramming
           ENTRY                   ADDRESS         REF BY
           =====                   =======         ======
           Intro                   00000380 
           hasRunSecondEnter       000003C0 
           LOCAL                   ADDRESS         
           =====                   =======         
           TestPrg::Count          0000037A 
           TestPrg::State          00000378 
           TestPrg::TxtBuffer      000003C4 
           pHeaders                0000037C 
    -------------------------------------------------------------------------
DATA_I
  Relative segment, address: 0000044C - 0000046B (0x20 bytes), align: 2
  Segment part 55.            Intra module refs:   cUiGetMenuPointer
           ENTRY                   ADDRESS         REF BY
           =====                   =======         ======
           MenuPointers            0000044C 
    -------------------------------------------------------------------------
CODE
  Relative segment, address: 0010CDF0 - 0010CEA3 (0xb4 bytes), align: 2
  Segment part 188.           Intra module refs:   cUiDataLogging
                                                   cUiNVRead
                                                   cUiPowerOffTime
                                                   cUiVolume
           ENTRY                   ADDRESS         REF BY
           =====                   =======         ======
           cUiNVWrite              0010CDF1 
               stack 1 = 00000000 ( 0000001C )
    -------------------------------------------------------------------------
CODE
  Relative segment, address: 0010CEA4 - 0010CEAF (0xc bytes), align: 2
  Segment part 189.           Intra module refs:   cUiNVWrite
                                                   cUiUpdateSensor
           LOCAL                   ADDRESS         
           =====                   =======         
           ?Subroutine78           0010CEA5 
    -------------------------------------------------------------------------
CODE
  Relative segment, address: 0010CEB0 - 0010CEB3 (0x4 bytes), align: 2
  Segment part 190.           Intra module refs:   cUiNVWrite
    -------------------------------------------------------------------------
CODE
  Relative segment, address: 0010CEB4 - 0010CF45 (0x92 bytes), align: 2
  Segment part 192.           Intra module refs:   cUiCtrl
           ENTRY                   ADDRESS         REF BY
           =====                   =======         ======
           cUiNVRead               0010CEB5 
               stack 1 = 00000000 ( 00000014 )
    -------------------------------------------------------------------------
CODE
  Relative segment, address: 0010CF48 - 0010CF4B (0x4 bytes), align: 2
  Segment part 193.           Intra module refs:   cUiNVRead
                                                   cUiNVWrite
    -------------------------------------------------------------------------
CODE
  Relative segment, address: 0010CF4C - 0010CF4F (0x4 bytes), align: 2
  Segment part 194.           Intra module refs:   cUiNVRead
                                                   cUiNVWrite
    -------------------------------------------------------------------------
CODE
  Relative segment, address: 0010CF50 - 0010CF53 (0x4 bytes), align: 2
  Segment part 195.           Intra module refs:   cUiNVRead
                                                   cUiNVWrite
    -------------------------------------------------------------------------
CODE
  Relative segment, address: 0010CF54 - 0010CF57 (0x4 bytes), align: 2
  Segment part 196.           Intra module refs:   cUiNVRead
                                                   cUiNVWrite
    -------------------------------------------------------------------------
CODE
  Relative segment, address: 0010CF58 - 0010CF5B (0x4 bytes), align: 2
  Segment part 197.           Intra module refs:   cUiNVRead
                                                   cUiNVWrite
    -------------------------------------------------------------------------
CODE
  Relative segment, address: 0010CF5C - 0010CF5F (0x4 bytes), align: 2
  Segment part 198.           Intra module refs:   TestPrg
                                                   cUiNVRead
                                                   cUiNVWrite
    -------------------------------------------------------------------------
CODE
  Relative segment, address: 0010CF60 - 0010D0E3 (0x184 bytes), align: 2
  Segment part 200.           Intra module refs:   cUiBtConnect
                                                   cUiBtConnectList
                                                   cUiBtDeviceList
                                                   cUiBtOn
                                                   cUiBtSearch
                                                   cUiCtrl
                                                   cUiDataLogging
                                                   cUiFileDelete
                                                   cUiFilesDelete
                                                   cUiOnBrickProgramming
           ENTRY                   ADDRESS         REF BY
           =====                   =======         ======
           cUiFeedback             0010CF61 
               stack 1 = 00000000 ( 0000002C )
    -------------------------------------------------------------------------
CODE
  Relative segment, address: 0010D0E4 - 0010D0E7 (0x4 bytes), align: 2
  Segment part 201.           Intra module refs:   cUiFeedback
    -------------------------------------------------------------------------
CODE
  Relative segment, address: 0010D0E8 - 0010D19F (0xb8 bytes), align: 2
  Segment part 203.           Intra module refs:   cUiFileList
           ENTRY                   ADDRESS         REF BY
           =====                   =======         ======
           cUiFindNoOfFiles        0010D0E9 
               stack 1 = 00000000 ( 0000001C )
    -------------------------------------------------------------------------
CODE
  Relative segment, address: 0010D1A0 - 0010D1A5 (0x6 bytes), align: 2
  Segment part 204.           Intra module refs:   cUiBTCommand
                                                   cUiBtDeviceList
                                                   cUiFindNoOfFiles
           LOCAL                   ADDRESS         
           =====                   =======         
           ?Subroutine79           0010D1A1 
    -------------------------------------------------------------------------
CODE
  Relative segment, address: 0010D1A8 - 0010D1AB (0x4 bytes), align: 2
  Segment part 205.           Intra module refs:   cUiFeedback
                                                   cUiFindNoOfFiles
    -------------------------------------------------------------------------
CODE
  Relative segment, address: 0010D1AC - 0010D29B (0xf0 bytes), align: 2
  Segment part 207.           Intra module refs:   cUiFileList
           ENTRY                   ADDRESS         REF BY
           =====                   =======         ======
           cUiFindNameForFileNo    0010D1AD 
               stack 1 = 00000000 ( 00000020 )
    -------------------------------------------------------------------------
CODE
  Relative segment, address: 0010D29C - 0010D2A7 (0xc bytes), align: 2
  Segment part 208.           Intra module refs:   cUiBtSearch
                                                   cUiFindNameForFileNo
                                                   cUiMenuGetNoOfMenus
           LOCAL                   ADDRESS         
           =====                   =======         
           ?Subroutine73           0010D29D 
    -------------------------------------------------------------------------
CODE
  Relative segment, address: 0010D2A8 - 0010D2AB (0x4 bytes), align: 2
  Segment part 209.           Intra module refs:   cUiFindNameForFileNo
                                                   cUiFindNoOfFiles
    -------------------------------------------------------------------------
CODE
  Relative segment, address: 0010D2AC - 0010D2AF (0x4 bytes), align: 2
  Segment part 210.           Intra module refs:   cUiFindNameForFileNo
                                                   cUiFindNoOfFiles
    -------------------------------------------------------------------------
CODE
  Relative segment, address: 0010D2B0 - 0010D2B3 (0x4 bytes), align: 2
  Segment part 211.           Intra module refs:   cUiFindNameForFileNo
                                                   cUiFindNoOfFiles
    -------------------------------------------------------------------------
CODE
  Relative segment, address: 0010D2B4 - 0010D2B7 (0x4 bytes), align: 2
  Segment part 212.           Intra module refs:   cUiFindNameForFileNo
                                                   cUiFindNoOfFiles
    -------------------------------------------------------------------------
CODE
  Relative segment, address: 0010D2B8 - 0010D4C7 (0x210 bytes), align: 2
  Segment part 214.           Intra module refs:   Segment part 67
           ENTRY                   ADDRESS         REF BY
           =====                   =======         ======
           cUiFileList             0010D2B9 
               stack 1 = 00000000 ( 00000014 )
    -------------------------------------------------------------------------
CODE
  Relative segment, address: 0010D4C8 - 0010D4CB (0x4 bytes), align: 2
  Segment part 215.           Intra module refs:   cUiFileList
    -------------------------------------------------------------------------
CODE
  Relative segment, address: 0010D4CC - 0010D4CF (0x4 bytes), align: 2
  Segment part 216.           Intra module refs:   cUiFileList
    -------------------------------------------------------------------------
CODE
  Relative segment, address: 0010D4D0 - 0010D4D3 (0x4 bytes), align: 2
  Segment part 217.           Intra module refs:   cUiFileList
                                                   cUiFindNameForFileNo
    -------------------------------------------------------------------------
CODE
  Relative segment, address: 0010D4D4 - 0010D4D7 (0x4 bytes), align: 2
  Segment part 218.           Intra module refs:   cUiFileList
    -------------------------------------------------------------------------
CODE
  Relative segment, address: 0010D4D8 - 0010D4DB (0x4 bytes), align: 2
  Segment part 219.           Intra module refs:   cUiFileList
    -------------------------------------------------------------------------
CODE
  Relative segment, address: 0010D4DC - 0010D5DF (0x104 bytes), align: 2
  Segment part 221.           Intra module refs:   Segment part 67
           ENTRY                   ADDRESS         REF BY
           =====                   =======         ======
           cUiVolume               0010D4DD 
               stack 1 = 00000000 ( 00000018 )
    -------------------------------------------------------------------------
CODE
  Relative segment, address: 0010D5E0 - 0010D5E3 (0x4 bytes), align: 2
  Segment part 222.           Intra module refs:   cUiVolume
    -------------------------------------------------------------------------
CODE
  Relative segment, address: 0010D5E4 - 0010D5E7 (0x4 bytes), align: 2
  Segment part 223.           Intra module refs:   cUiVolume
    -------------------------------------------------------------------------
CODE
  Relative segment, address: 0010D5E8 - 0010D5EB (0x4 bytes), align: 2
  Segment part 224.           Intra module refs:   cUiVolume
    -------------------------------------------------------------------------
CODE
  Relative segment, address: 0010D5EC - 0010D5EF (0x4 bytes), align: 2
  Segment part 225.           Intra module refs:   cUiVolume
    -------------------------------------------------------------------------
CODE
  Relative segment, address: 0010D5F0 - 0010D5F3 (0x4 bytes), align: 2
  Segment part 226.           Intra module refs:   cUiFileList
                                                   cUiVolume
    -------------------------------------------------------------------------
CODE
  Relative segment, address: 0010D5F4 - 0010D5F7 (0x4 bytes), align: 2
  Segment part 227.           Intra module refs:   cUiVolume
    -------------------------------------------------------------------------
CODE
  Relative segment, address: 0010D5F8 - 0010D5FB (0x4 bytes), align: 2
  Segment part 228.           Intra module refs:   cUiVolume
    -------------------------------------------------------------------------
CODE
  Relative segment, address: 0010D5FC - 0010D5FF (0x4 bytes), align: 2
  Segment part 229.           Intra module refs:   cUiVolume
    -------------------------------------------------------------------------
CODE
  Relative segment, address: 0010D600 - 0010D603 (0x4 bytes), align: 2
  Segment part 230.           Intra module refs:   cUiVolume
    -------------------------------------------------------------------------
CODE
  Relative segment, address: 0010D604 - 0010D607 (0x4 bytes), align: 2
  Segment part 231.           Intra module refs:   cUiVolume
    -------------------------------------------------------------------------
DATA_C
  Relative segment, address: 0011BF58 - 0011BF97 (0x40 bytes), align: 2
  Segment part 27.            Intra module refs:   ?Subroutine72
           ENTRY                   ADDRESS         REF BY
           =====                   =======         ======
           Ok                      0011BF70 
           StrSets                 0011BF58 
    -------------------------------------------------------------------------
DATA_C
  Relative segment, address: 0011BF98 - 0011DA0F (0x1a78 bytes), align: 2
  Segment part 28.            Intra module refs:   Segment part 218
                                                   Segment part 96
           ENTRY                   ADDRESS         REF BY
           =====                   =======         ======
           Icons                   0011BF98 
    -------------------------------------------------------------------------
DATA_C
  Relative segment, address: 0011DA10 - 0011DC17 (0x208 bytes), align: 2
  Segment part 29.            Intra module refs:   Segment part 23
           ENTRY                   ADDRESS         REF BY
           =====                   =======         ======
           RCXintro_1              0011DA10 
    -------------------------------------------------------------------------
DATA_C
  Relative segment, address: 0011DC18 - 0011DE1F (0x208 bytes), align: 2
  Segment part 30.            Intra module refs:   Segment part 23
           ENTRY                   ADDRESS         REF BY
           =====                   =======         ======
           RCXintro_2              0011DC18 
    -------------------------------------------------------------------------
DATA_C
  Relative segment, address: 0011DE20 - 0011E027 (0x208 bytes), align: 2
  Segment part 31.            Intra module refs:   Segment part 23
           ENTRY                   ADDRESS         REF BY
           =====                   =======         ======
           RCXintro_3              0011DE20 
    -------------------------------------------------------------------------
DATA_C
  Relative segment, address: 0011E028 - 0011E22F (0x208 bytes), align: 2
  Segment part 32.            Intra module refs:   Segment part 23
           ENTRY                   ADDRESS         REF BY
           =====                   =======         ======
           RCXintro_4              0011E028 
    -------------------------------------------------------------------------
DATA_C
  Relative segment, address: 0011E230 - 0011E3D7 (0x1a8 bytes), align: 2
  Segment part 33.            Intra module refs:   Segment part 23
           ENTRY                   ADDRESS         REF BY
           =====                   =======         ======
           RCXintro_5              0011E230 
    -------------------------------------------------------------------------
DATA_C
  Relative segment, address: 0011E3D8 - 0011E4E7 (0x110 bytes), align: 2
  Segment part 34.            Intra module refs:   Segment part 23
           ENTRY                   ADDRESS         REF BY
           =====                   =======         ======
           RCXintro_6              0011E3D8 
    -------------------------------------------------------------------------
DATA_C
  Relative segment, address: 0011E4E8 - 0011E59F (0xb8 bytes), align: 2
  Segment part 35.            Intra module refs:   Segment part 23
           ENTRY                   ADDRESS         REF BY
           =====                   =======         ======
           RCXintro_7              0011E4E8 
    -------------------------------------------------------------------------
DATA_C
  Relative segment, address: 0011E5A0 - 0011E5EF (0x50 bytes), align: 2
  Segment part 36.            Intra module refs:   Segment part 23
           ENTRY                   ADDRESS         REF BY
           =====                   =======         ======
           RCXintro_8              0011E5A0 
    -------------------------------------------------------------------------
DATA_C
  Relative segment, address: 0011E5F0 - 0011E627 (0x38 bytes), align: 2
  Segment part 37.            Intra module refs:   Segment part 23
           ENTRY                   ADDRESS         REF BY
           =====                   =======         ======
           RCXintro_9              0011E5F0 
    -------------------------------------------------------------------------
DATA_C
  Relative segment, address: 0011E628 - 0011E647 (0x20 bytes), align: 2
  Segment part 38.            Intra module refs:   Segment part 23
           ENTRY                   ADDRESS         REF BY
           =====                   =======         ======
           RCXintro_10             0011E628 
    -------------------------------------------------------------------------
DATA_C
  Relative segment, address: 0011E648 - 0011E65F (0x18 bytes), align: 2
  Segment part 39.            Intra module refs:   Segment part 23
           ENTRY                   ADDRESS         REF BY
           =====                   =======         ======
           RCXintro_11             0011E648 
    -------------------------------------------------------------------------
DATA_C
  Relative segment, address: 0011E660 - 0011E727 (0xc8 bytes), align: 2
  Segment part 40.            Intra module refs:   Segment part 23
           ENTRY                   ADDRESS         REF BY
           =====                   =======         ======
           RCXintro_12             0011E660 
    -------------------------------------------------------------------------
DATA_C
  Relative segment, address: 0011E728 - 0011E7EF (0xc8 bytes), align: 2
  Segment part 41.            Intra module refs:   Segment part 23
           ENTRY                   ADDRESS         REF BY
           =====                   =======         ======
           RCXintro_13             0011E728 
    -------------------------------------------------------------------------
DATA_C
  Relative segment, address: 0011E7F0 - 0011E8B7 (0xc8 bytes), align: 2
  Segment part 42.            Intra module refs:   Segment part 23
           ENTRY                   ADDRESS         REF BY
           =====                   =======         ======
           RCXintro_14             0011E7F0 
    -------------------------------------------------------------------------
DATA_C
  Relative segment, address: 0011E8B8 - 0011E97F (0xc8 bytes), align: 2
  Segment part 43.            Intra module refs:   Segment part 23
           ENTRY                   ADDRESS         REF BY
           =====                   =======         ======
           RCXintro_15             0011E8B8 
    -------------------------------------------------------------------------
DATA_C
  Relative segment, address: 0011E980 - 0011EA47 (0xc8 bytes), align: 2
  Segment part 44.            Intra module refs:   Segment part 23
           ENTRY                   ADDRESS         REF BY
           =====                   =======         ======
           RCXintro_16             0011E980 
    -------------------------------------------------------------------------
DATA_C
  Relative segment, address: 0011EA48 - 0011EE5F (0x418 bytes), align: 2
  Segment part 45.            Intra module refs:   cUiGetString
           ENTRY                   ADDRESS         REF BY
           =====                   =======         ======
           Ui                      0011EA48 
    -------------------------------------------------------------------------
DATA_C
  Relative segment, address: 0011EE60 - 0011EE6F (0x10 bytes), align: 2
  Segment part 46.            Intra module refs:   cUiUpdateStatus
           ENTRY                   ADDRESS         REF BY
           =====                   =======         ======
           BatteryLimits           0011EE60 
           RechargeableLimits      0011EE68 
    -------------------------------------------------------------------------
DATA_C
  Relative segment, address: 0011EE70 - 0011EF7F (0x110 bytes), align: 2
  Segment part 47.            Intra module refs:   Segment part 56
           ENTRY                   ADDRESS         REF BY
           =====                   =======         ======
           MAINMENU                0011EE70 
    -------------------------------------------------------------------------
DATA_C
  Relative segment, address: 0011EF80 - 0011F177 (0x1f8 bytes), align: 2
  Segment part 48.            Intra module refs:   Segment part 56
           ENTRY                   ADDRESS         REF BY
           =====                   =======         ======
           SUBMENU01               0011EF80 
    -------------------------------------------------------------------------
DATA_C
  Relative segment, address: 0011F178 - 0011F7D7 (0x660 bytes), align: 2
  Segment part 49.            Intra module refs:   Segment part 56
           ENTRY                   ADDRESS         REF BY
           =====                   =======         ======
           SUBMENU02               0011F178 
    -------------------------------------------------------------------------
DATA_C
  Relative segment, address: 0011F7D8 - 0011FB7F (0x3a8 bytes), align: 2
  Segment part 50.            Intra module refs:   Segment part 56
           ENTRY                   ADDRESS         REF BY
           =====                   =======         ======
           SUBMENU03               0011F7D8 
    -------------------------------------------------------------------------
DATA_C
  Relative segment, address: 0011FB80 - 0011FE07 (0x288 bytes), align: 2
  Segment part 51.            Intra module refs:   Segment part 56
           ENTRY                   ADDRESS         REF BY
           =====                   =======         ======
           SUBMENU04               0011FB80 
    -------------------------------------------------------------------------
DATA_C
  Relative segment, address: 0011FE08 - 0011FFFF (0x1f8 bytes), align: 2
  Segment part 52.            Intra module refs:   Segment part 56
           ENTRY                   ADDRESS         REF BY
           =====                   =======         ======
           SUBMENU05               0011FE08 
    -------------------------------------------------------------------------
DATA_C
  Relative segment, address: 00120000 - 001200B7 (0xb8 bytes), align: 2
  Segment part 53.            Intra module refs:   Segment part 56
           ENTRY                   ADDRESS         REF BY
           =====                   =======         ======
           SUBMENU06               00120000 
    -------------------------------------------------------------------------
DATA_C
  Relative segment, address: 001200B8 - 001202E7 (0x230 bytes), align: 2
  Segment part 54.            Intra module refs:   Segment part 56
           ENTRY                   ADDRESS         REF BY
           =====                   =======         ======
           SUBMENU07               001200B8 
    -------------------------------------------------------------------------
DATA_C
  Relative segment, address: 001202E8 - 00120307 (0x20 bytes), align: 2
  Segment part 58.            Intra module refs:   cUiUpdateSensor
           ENTRY                   ADDRESS         REF BY
           =====                   =======         ======
           SENSORMODE              001202F8 
           SENSORTYPE              001202E8 
    -------------------------------------------------------------------------
DATA_C
  Relative segment, address: 00120308 - 0012031B (0x14 bytes), align: 2
  Segment part 63.            Intra module refs:   ?Subroutine71
           ENTRY                   ADDRESS         REF BY
           =====                   =======         ======
           TXT_EMPTY               00120308 
    -------------------------------------------------------------------------
DATA_C
  Relative segment, address: 0012031C - 0012034B (0x30 bytes), align: 2
  Segment part 65.            Intra module refs:   Segment part 27
           ENTRY                   ADDRESS         REF BY
           =====                   =======         ======
           Figures                 0012031C 
    -------------------------------------------------------------------------
CODE
  Relative segment, address: 0010D608 - 0010D937 (0x330 bytes), align: 2
  Segment part 233.           Intra module refs:   Segment part 67
                                                   cUiBTConnectRequest
                                                   cUiBtConnect
                                                   cUiOnBrickProgramming
           ENTRY                   ADDRESS         REF BY
           =====                   =======         ======
           cUiGetUserString        0010D609 
               stack 1 = 00000000 ( 00000030 )
    -------------------------------------------------------------------------
CODE
  Relative segment, address: 0010D938 - 0010D95B (0x24 bytes), align: 2
  Segment part 234.           Intra module refs:   cUiBtVisiability
                                                   cUiGetUserString
                                                   cUiMenuIdValid
                                                   cUiPowerOffTime
                                                   cUiVolume
           LOCAL                   ADDRESS         
           =====                   =======         
           ?Subroutine72           0010D939 
    -------------------------------------------------------------------------
CODE
  Relative segment, address: 0010D95C - 0010D95F (0x4 bytes), align: 2
  Segment part 235.           Intra module refs:   cUiGetUserString
    -------------------------------------------------------------------------
CODE
  Relative segment, address: 0010D960 - 0010D963 (0x4 bytes), align: 2
  Segment part 236.           Intra module refs:   cUiGetUserString
    -------------------------------------------------------------------------
CODE
  Relative segment, address: 0010D964 - 0010D967 (0x4 bytes), align: 2
  Segment part 237.           Intra module refs:   cUiGetUserString
    -------------------------------------------------------------------------
CODE
  Relative segment, address: 0010D968 - 0010D9AB (0x44 bytes), align: 2
  Segment part 239.           Intra module refs:   cUiBtConnect
                                                   cUiBtConnectList
                                                   cUiDataLogging
           ENTRY                   ADDRESS         REF BY
           =====                   =======         ======
           cUiDrawPortNo           0010D969 
               stack 1 = 00000000 ( 0000000C )
    -------------------------------------------------------------------------
CODE
  Relative segment, address: 0010D9AC - 0010D9B7 (0xc bytes), align: 2
  Segment part 240.           Intra module refs:   cUiDrawPortNo
                                                   cUiMenuEnter
           LOCAL                   ADDRESS         
           =====                   =======         
           ?Subroutine76           0010D9AD 
    -------------------------------------------------------------------------
CODE
  Relative segment, address: 0010D9B8 - 0010E557 (0xba0 bytes), align: 2
  Segment part 242.           Intra module refs:   Segment part 67
           ENTRY                   ADDRESS         REF BY
           =====                   =======         ======
           cUiDataLogging          0010D9B9 
               stack 1 = 00000000 ( 0000005C )
    -------------------------------------------------------------------------
CODE
  Relative segment, address: 0010E558 - 0010E55B (0x4 bytes), align: 2
  Segment part 243.           Intra module refs:   cUiDataLogging
    -------------------------------------------------------------------------
CODE
  Relative segment, address: 0010E55C - 0010E55F (0x4 bytes), align: 2
  Segment part 244.           Intra module refs:   cUiDataLogging
    -------------------------------------------------------------------------
CODE
  Relative segment, address: 0010E560 - 0010E623 (0xc4 bytes), align: 2
  Segment part 246.           Intra module refs:   cUiFileRun
                                                   cUiOnBrickProgramming
           ENTRY                   ADDRESS         REF BY
           =====                   =======         ======
           cUiRunning              0010E561 
               stack 1 = 00000000 ( 00000014 )
    -------------------------------------------------------------------------
CODE
  Relative segment, address: 0010E624 - 0010E627 (0x4 bytes), align: 2
  Segment part 247.           Intra module refs:   cUiRunning
    -------------------------------------------------------------------------
CODE
  Relative segment, address: 0010E628 - 0010E62B (0x4 bytes), align: 2
  Segment part 248.           Intra module refs:   cUiRunning
    -------------------------------------------------------------------------
CODE
  Relative segment, address: 0010E62C - 0010E62F (0x4 bytes), align: 2
  Segment part 249.           Intra module refs:   cUiRunning
    -------------------------------------------------------------------------
CODE
  Relative segment, address: 0010E630 - 0010EC6B (0x63c bytes), align: 2
  Segment part 251.           Intra module refs:   Segment part 67
                                                   cUiFileRun
           ENTRY                   ADDRESS         REF BY
           =====                   =======         ======
           cUiOnBrickProgramming   0010E631 
               stack 1 = 00000000 ( 00000044 )
    -------------------------------------------------------------------------
CODE
  Relative segment, address: 0010EC6C - 0010EC6F (0x4 bytes), align: 2
  Segment part 252.           Intra module refs:   cUiOnBrickProgramming
    -------------------------------------------------------------------------
CODE
  Relative segment, address: 0010EC70 - 0010EC73 (0x4 bytes), align: 2
  Segment part 253.           Intra module refs:   cUiOnBrickProgramming
    -------------------------------------------------------------------------
CODE
  Relative segment, address: 0010EC74 - 0010EC77 (0x4 bytes), align: 2
  Segment part 254.           Intra module refs:   cUiOnBrickProgramming
    -------------------------------------------------------------------------
CODE
  Relative segment, address: 0010EC78 - 0010EC7B (0x4 bytes), align: 2
  Segment part 255.           Intra module refs:   cUiOnBrickProgramming
    -------------------------------------------------------------------------
CODE
  Relative segment, address: 0010EC7C - 0010ED19 (0x9e bytes), align: 2
  Segment part 257.           Intra module refs:   cUiFileRun
           ENTRY                   ADDRESS         REF BY
           =====                   =======         ======
           cUiFindFileType         0010EC7D 
               stack 1 = 00000000 ( 00000028 )
    -------------------------------------------------------------------------
CODE
  Relative segment, address: 0010ED1C - 0010ED1F (0x4 bytes), align: 2
  Segment part 258.           Intra module refs:   cUiFindFileType
    -------------------------------------------------------------------------
CODE
  Relative segment, address: 0010ED20 - 0010ED23 (0x4 bytes), align: 2
  Segment part 259.           Intra module refs:   cUiFindFileType
    -------------------------------------------------------------------------
CODE
  Relative segment, address: 0010ED24 - 0010F22F (0x50c bytes), align: 2
  Segment part 261.           Intra module refs:   Segment part 67
                                                   cUiCtrl
           ENTRY                   ADDRESS         REF BY
           =====                   =======         ======
           cUiFileRun              0010ED25 
               stack 1 = 00000000 ( 00000024 )
    -------------------------------------------------------------------------
CODE
  Relative segment, address: 0010F230 - 0010F233 (0x4 bytes), align: 2
  Segment part 262.           Intra module refs:   cUiFileRun
    -------------------------------------------------------------------------
CODE
  Relative segment, address: 0010F234 - 0010F237 (0x4 bytes), align: 2
  Segment part 263.           Intra module refs:   cUiFileRun
    -------------------------------------------------------------------------
CODE
  Relative segment, address: 0010F238 - 0010F23B (0x4 bytes), align: 2
  Segment part 264.           Intra module refs:   cUiFileRun
    -------------------------------------------------------------------------
CODE
  Relative segment, address: 0010F23C - 0010F23F (0x4 bytes), align: 2
  Segment part 265.           Intra module refs:   cUiFileRun
    -------------------------------------------------------------------------
CODE
  Relative segment, address: 0010F240 - 0010F243 (0x4 bytes), align: 2
  Segment part 266.           Intra module refs:   cUiFileRun
    -------------------------------------------------------------------------
CODE
  Relative segment, address: 0010F244 - 0010F2AF (0x6c bytes), align: 2
  Segment part 268.           Intra module refs:   Segment part 67
           ENTRY                   ADDRESS         REF BY
           =====                   =======         ======
           cUiFileDelete           0010F245 
               stack 1 = 00000000 ( 00000010 )
    -------------------------------------------------------------------------
CODE
  Relative segment, address: 0010F2B0 - 0010F2B3 (0x4 bytes), align: 2
  Segment part 269.           Intra module refs:   cUiFileDelete
    -------------------------------------------------------------------------
CODE
  Relative segment, address: 0010F2B4 - 0010F2B7 (0x4 bytes), align: 2
  Segment part 270.           Intra module refs:   cUiFileDelete
    -------------------------------------------------------------------------
CODE
  Relative segment, address: 0010F2B8 - 0010F2BB (0x4 bytes), align: 2
  Segment part 271.           Intra module refs:   cUiFileDelete
    -------------------------------------------------------------------------
CODE
  Relative segment, address: 0010F2BC - 0010F2BF (0x4 bytes), align: 2
  Segment part 272.           Intra module refs:   cUiFileDelete
    -------------------------------------------------------------------------
CODE
  Relative segment, address: 0010F2C0 - 0010F2C3 (0x4 bytes), align: 2
  Segment part 273.           Intra module refs:   cUiFileDelete
    -------------------------------------------------------------------------
CODE
  Relative segment, address: 0010F2C4 - 0010F45B (0x198 bytes), align: 2
  Segment part 275.           Intra module refs:   Segment part 67
           ENTRY                   ADDRESS         REF BY
           =====                   =======         ======
           cUiView                 0010F2C5 
               stack 1 = 00000000 ( 00000014 )
    -------------------------------------------------------------------------
CODE
  Relative segment, address: 0010F45C - 0010F45F (0x4 bytes), align: 2
  Segment part 276.           Intra module refs:   cUiView
    -------------------------------------------------------------------------
CODE
  Relative segment, address: 0010F460 - 0010F463 (0x4 bytes), align: 2
  Segment part 277.           Intra module refs:   cUiView
    -------------------------------------------------------------------------
CODE
  Relative segment, address: 0010F464 - 0010F467 (0x4 bytes), align: 2
  Segment part 278.           Intra module refs:   cUiView
    -------------------------------------------------------------------------
CODE
  Relative segment, address: 0010F468 - 0010F46B (0x4 bytes), align: 2
  Segment part 279.           Intra module refs:   cUiFileDelete
                                                   cUiView
    -------------------------------------------------------------------------
CODE
  Relative segment, address: 0010F46C - 0010F46F (0x4 bytes), align: 2
  Segment part 280.           Intra module refs:   cUiView
    -------------------------------------------------------------------------
CODE
  Relative segment, address: 0010F470 - 0010F473 (0x4 bytes), align: 2
  Segment part 281.           Intra module refs:   cUiView
    -------------------------------------------------------------------------
CODE
  Relative segment, address: 0010F474 - 0010F5B3 (0x140 bytes), align: 2
  Segment part 283.           Intra module refs:   Segment part 67
           ENTRY                   ADDRESS         REF BY
           =====                   =======         ======
           cUiBtOn                 0010F475 
               stack 1 = 00000000 ( 0000002C )
    -------------------------------------------------------------------------
CODE
  Relative segment, address: 0010F5B4 - 0010F5B7 (0x4 bytes), align: 2
  Segment part 284.           Intra module refs:   cUiBtOn
    -------------------------------------------------------------------------
CODE
  Relative segment, address: 0010F5B8 - 0010F5BB (0x4 bytes), align: 2
  Segment part 285.           Intra module refs:   cUiBtOn
    -------------------------------------------------------------------------
CODE
  Relative segment, address: 0010F5BC - 0010F64D (0x92 bytes), align: 2
  Segment part 287.           Intra module refs:   Segment part 67
           ENTRY                   ADDRESS         REF BY
           =====                   =======         ======
           cUiBtVisiability        0010F5BD 
               stack 1 = 00000000 ( 00000020 )
    -------------------------------------------------------------------------
CODE
  Relative segment, address: 0010F650 - 0010F653 (0x4 bytes), align: 2
  Segment part 288.           Intra module refs:   cUiBtOn
                                                   cUiBtVisiability
    -------------------------------------------------------------------------
CODE
  Relative segment, address: 0010F654 - 0010F657 (0x4 bytes), align: 2
  Segment part 289.           Intra module refs:   cUiBtOn
                                                   cUiBtVisiability
    -------------------------------------------------------------------------
CODE
  Relative segment, address: 0010F658 - 0010F65B (0x4 bytes), align: 2
  Segment part 290.           Intra module refs:   cUiBtOn
                                                   cUiBtVisiability
    -------------------------------------------------------------------------
CODE
  Relative segment, address: 0010F65C - 0010F65F (0x4 bytes), align: 2
  Segment part 291.           Intra module refs:   cUiBtOn
                                                   cUiBtVisiability
    -------------------------------------------------------------------------
CODE
  Relative segment, address: 0010F660 - 0010F86F (0x210 bytes), align: 2
  Segment part 293.           Intra module refs:   Segment part 67
           ENTRY                   ADDRESS         REF BY
           =====                   =======         ======
           cUiBtSearch             0010F661 
               stack 1 = 00000000 ( 00000028 )
    -------------------------------------------------------------------------
CODE
  Relative segment, address: 0010F870 - 0010F873 (0x4 bytes), align: 2
  Segment part 294.           Intra module refs:   cUiBtSearch
    -------------------------------------------------------------------------
CODE
  Relative segment, address: 0010F874 - 0010F877 (0x4 bytes), align: 2
  Segment part 295.           Intra module refs:   cUiBtSearch
    -------------------------------------------------------------------------
CODE
  Relative segment, address: 0010F878 - 0010F87B (0x4 bytes), align: 2
  Segment part 296.           Intra module refs:   cUiBtSearch
    -------------------------------------------------------------------------
CODE
  Relative segment, address: 0010F87C - 0010F87F (0x4 bytes), align: 2
  Segment part 297.           Intra module refs:   cUiBtOn
                                                   cUiBtSearch
                                                   cUiBtVisiability
    -------------------------------------------------------------------------
CODE
  Relative segment, address: 0010F880 - 0010F883 (0x4 bytes), align: 2
  Segment part 298.           Intra module refs:   cUiBtSearch
    -------------------------------------------------------------------------
CODE
  Relative segment, address: 0010F884 - 0010F887 (0x4 bytes), align: 2
  Segment part 299.           Intra module refs:   cUiBtSearch
    -------------------------------------------------------------------------
CODE
  Relative segment, address: 0010F888 - 0010F88B (0x4 bytes), align: 2
  Segment part 300.           Intra module refs:   cUiBtSearch
    -------------------------------------------------------------------------
CODE
  Relative segment, address: 0010F88C - 0010F88F (0x4 bytes), align: 2
  Segment part 301.           Intra module refs:   cUiBtSearch
    -------------------------------------------------------------------------
CODE
  Relative segment, address: 0010F890 - 0010F893 (0x4 bytes), align: 2
  Segment part 302.           Intra module refs:   cUiBtSearch
    -------------------------------------------------------------------------
CODE
  Relative segment, address: 0010F894 - 0010FB43 (0x2b0 bytes), align: 2
  Segment part 304.           Intra module refs:   Segment part 67
           ENTRY                   ADDRESS         REF BY
           =====                   =======         ======
           cUiBtDeviceList         0010F895 
               stack 1 = 00000000 ( 00000024 )
    -------------------------------------------------------------------------
CODE
  Relative segment, address: 0010FB44 - 0010FB47 (0x4 bytes), align: 2
  Segment part 305.           Intra module refs:   cUiBtDeviceList
    -------------------------------------------------------------------------
CODE
  Relative segment, address: 0010FB48 - 0010FB4B (0x4 bytes), align: 2
  Segment part 306.           Intra module refs:   cUiBtDeviceList
    -------------------------------------------------------------------------
CODE
  Relative segment, address: 0010FB4C - 0010FB4F (0x4 bytes), align: 2
  Segment part 307.           Intra module refs:   cUiBtDeviceList
    -------------------------------------------------------------------------
CODE
  Relative segment, address: 0010FB50 - 0010FB53 (0x4 bytes), align: 2
  Segment part 308.           Intra module refs:   cUiBtDeviceList
    -------------------------------------------------------------------------
CODE
  Relative segment, address: 0010FB54 - 0010FB57 (0x4 bytes), align: 2
  Segment part 309.           Intra module refs:   cUiBtDeviceList
    -------------------------------------------------------------------------
CODE
  Relative segment, address: 0010FB58 - 0010FB5B (0x4 bytes), align: 2
  Segment part 310.           Intra module refs:   cUiBtDeviceList
                                                   cUiBtSearch
    -------------------------------------------------------------------------
CODE
  Relative segment, address: 0010FB5C - 0010FB5F (0x4 bytes), align: 2
  Segment part 311.           Intra module refs:   cUiBtDeviceList
                                                   cUiBtSearch
    -------------------------------------------------------------------------
CODE
  Relative segment, address: 0010FB60 - 0010FB63 (0x4 bytes), align: 2
  Segment part 312.           Intra module refs:   cUiBtDeviceList
    -------------------------------------------------------------------------
CODE
  Relative segment, address: 0010FB64 - 0010FB67 (0x4 bytes), align: 2
  Segment part 313.           Intra module refs:   cUiBtDeviceList
    -------------------------------------------------------------------------
CODE
  Relative segment, address: 0010FB68 - 0010FB6B (0x4 bytes), align: 2
  Segment part 314.           Intra module refs:   cUiBtDeviceList
    -------------------------------------------------------------------------
CODE
  Relative segment, address: 0010FB6C - 0010FB6F (0x4 bytes), align: 2
  Segment part 315.           Intra module refs:   cUiBtDeviceList
    -------------------------------------------------------------------------
CODE
  Relative segment, address: 0010FB70 - 0010FB73 (0x4 bytes), align: 2
  Segment part 316.           Intra module refs:   cUiBtDeviceList
    -------------------------------------------------------------------------
CODE
  Relative segment, address: 0010FB74 - 0010FE3B (0x2c8 bytes), align: 2
  Segment part 318.           Intra module refs:   Segment part 67
           ENTRY                   ADDRESS         REF BY
           =====                   =======         ======
           cUiBtConnectList        0010FB75 
               stack 1 = 00000000 ( 0000002C )
    -------------------------------------------------------------------------
CODE
  Relative segment, address: 0010FE3C - 0010FE3F (0x4 bytes), align: 2
  Segment part 319.           Intra module refs:   cUiBtConnectList
    -------------------------------------------------------------------------
CODE
  Relative segment, address: 0010FE40 - 0010FE43 (0x4 bytes), align: 2
  Segment part 320.           Intra module refs:   cUiBtConnectList
    -------------------------------------------------------------------------
CODE
  Relative segment, address: 0010FE44 - 0010FE47 (0x4 bytes), align: 2
  Segment part 321.           Intra module refs:   cUiBtConnectList
    -------------------------------------------------------------------------
CODE
  Relative segment, address: 0010FE48 - 0010FE4B (0x4 bytes), align: 2
  Segment part 322.           Intra module refs:   cUiBtConnectList
    -------------------------------------------------------------------------
CODE
  Relative segment, address: 0010FE4C - 0010FE4F (0x4 bytes), align: 2
  Segment part 323.           Intra module refs:   cUiBtConnectList
    -------------------------------------------------------------------------
CODE
  Relative segment, address: 0010FE50 - 0010FE53 (0x4 bytes), align: 2
  Segment part 324.           Intra module refs:   cUiBtConnectList
    -------------------------------------------------------------------------
CODE
  Relative segment, address: 0010FE54 - 0010FE57 (0x4 bytes), align: 2
  Segment part 325.           Intra module refs:   cUiBtConnectList
    -------------------------------------------------------------------------
CODE
  Relative segment, address: 0010FE58 - 0010FE5B (0x4 bytes), align: 2
  Segment part 326.           Intra module refs:   cUiBtConnectList
    -------------------------------------------------------------------------
CODE
  Relative segment, address: 0010FE5C - 0010FE5F (0x4 bytes), align: 2
  Segment part 327.           Intra module refs:   cUiBtConnectList
    -------------------------------------------------------------------------
CODE
  Relative segment, address: 0010FE60 - 0010FE63 (0x4 bytes), align: 2
  Segment part 328.           Intra module refs:   cUiBtConnectList
    -------------------------------------------------------------------------
CODE
  Relative segment, address: 0010FE64 - 0010FE67 (0x4 bytes), align: 2
  Segment part 329.           Intra module refs:   cUiBtConnectList
    -------------------------------------------------------------------------
CODE
  Relative segment, address: 0010FE68 - 0010FE6B (0x4 bytes), align: 2
  Segment part 330.           Intra module refs:   cUiBtConnectList
    -------------------------------------------------------------------------
CODE
  Relative segment, address: 0010FE6C - 0010FE6F (0x4 bytes), align: 2
  Segment part 331.           Intra module refs:   cUiBtConnectList
    -------------------------------------------------------------------------
CODE
  Relative segment, address: 0010FE70 - 0010FE73 (0x4 bytes), align: 2
  Segment part 332.           Intra module refs:   cUiBtConnectList
    -------------------------------------------------------------------------
CODE
  Relative segment, address: 0010FE74 - 0010FE77 (0x4 bytes), align: 2
  Segment part 333.           Intra module refs:   cUiBtConnectList
    -------------------------------------------------------------------------
CODE
  Relative segment, address: 0010FE78 - 0010FE7B (0x4 bytes), align: 2
  Segment part 334.           Intra module refs:   cUiBtConnectList
    -------------------------------------------------------------------------
CODE
  Relative segment, address: 0010FE7C - 0010FE7F (0x4 bytes), align: 2
  Segment part 335.           Intra module refs:   cUiBtConnectList
    -------------------------------------------------------------------------
CODE
  Relative segment, address: 0010FE80 - 0010FE83 (0x4 bytes), align: 2
  Segment part 336.           Intra module refs:   cUiBtConnectList
    -------------------------------------------------------------------------
CODE
  Relative segment, address: 0010FE84 - 0010FE87 (0x4 bytes), align: 2
  Segment part 337.           Intra module refs:   cUiBtConnectList
    -------------------------------------------------------------------------
CODE
  Relative segment, address: 0010FE88 - 0011034F (0x4c8 bytes), align: 2
  Segment part 339.           Intra module refs:   Segment part 67
           ENTRY                   ADDRESS         REF BY
           =====                   =======         ======
           cUiBtConnect            0010FE89 
               stack 1 = 00000000 ( 00000038 )
    -------------------------------------------------------------------------
CODE
  Relative segment, address: 00110350 - 00110353 (0x4 bytes), align: 2
  Segment part 340.           Intra module refs:   cUiBtConnect
    -------------------------------------------------------------------------
CODE
  Relative segment, address: 00110354 - 00110357 (0x4 bytes), align: 2
  Segment part 341.           Intra module refs:   cUiBtConnect
    -------------------------------------------------------------------------
CODE
  Relative segment, address: 00110358 - 0011035B (0x4 bytes), align: 2
  Segment part 342.           Intra module refs:   cUiBtConnect
    -------------------------------------------------------------------------
CODE
  Relative segment, address: 0011035C - 0011035F (0x4 bytes), align: 2
  Segment part 343.           Intra module refs:   cUiBtConnect
    -------------------------------------------------------------------------
CODE
  Relative segment, address: 00110360 - 00110363 (0x4 bytes), align: 2
  Segment part 344.           Intra module refs:   cUiBtConnect
    -------------------------------------------------------------------------
CODE
  Relative segment, address: 00110364 - 00110367 (0x4 bytes), align: 2
  Segment part 345.           Intra module refs:   cUiBtConnect
    -------------------------------------------------------------------------
CODE
  Relative segment, address: 00110368 - 0011036B (0x4 bytes), align: 2
  Segment part 346.           Intra module refs:   cUiBtConnect
    -------------------------------------------------------------------------
CODE
  Relative segment, address: 0011036C - 0011036F (0x4 bytes), align: 2
  Segment part 347.           Intra module refs:   cUiBtConnect
    -------------------------------------------------------------------------
CODE
  Relative segment, address: 00110370 - 00110373 (0x4 bytes), align: 2
  Segment part 348.           Intra module refs:   cUiBtConnect
    -------------------------------------------------------------------------
CODE
  Relative segment, address: 00110374 - 00110377 (0x4 bytes), align: 2
  Segment part 349.           Intra module refs:   cUiBtConnect
    -------------------------------------------------------------------------
CODE
  Relative segment, address: 00110378 - 0011037B (0x4 bytes), align: 2
  Segment part 350.           Intra module refs:   cUiBtConnect
    -------------------------------------------------------------------------
CODE
  Relative segment, address: 0011037C - 0011037F (0x4 bytes), align: 2
  Segment part 351.           Intra module refs:   cUiBtConnect
    -------------------------------------------------------------------------
CODE
  Relative segment, address: 00110380 - 00110383 (0x4 bytes), align: 2
  Segment part 352.           Intra module refs:   cUiBtConnect
    -------------------------------------------------------------------------
CODE
  Relative segment, address: 00110384 - 00110387 (0x4 bytes), align: 2
  Segment part 353.           Intra module refs:   cUiBtConnect
    -------------------------------------------------------------------------
CODE
  Relative segment, address: 00110388 - 0011038B (0x4 bytes), align: 2
  Segment part 354.           Intra module refs:   cUiBtConnect
    -------------------------------------------------------------------------
CODE
  Relative segment, address: 0011038C - 0011049F (0x114 bytes), align: 2
  Segment part 356.           Intra module refs:   Segment part 67
           ENTRY                   ADDRESS         REF BY
           =====                   =======         ======
           cUiPowerOffTime         0011038D 
               stack 1 = 00000000 ( 00000018 )
    -------------------------------------------------------------------------
CODE
  Relative segment, address: 001104A0 - 001104A3 (0x4 bytes), align: 2
  Segment part 357.           Intra module refs:   cUiPowerOffTime
    -------------------------------------------------------------------------
CODE
  Relative segment, address: 001104A4 - 001104A7 (0x4 bytes), align: 2
  Segment part 358.           Intra module refs:   cUiPowerOffTime
    -------------------------------------------------------------------------
CODE
  Relative segment, address: 001104A8 - 001104AB (0x4 bytes), align: 2
  Segment part 359.           Intra module refs:   cUiBtConnect
                                                   cUiPowerOffTime
    -------------------------------------------------------------------------
CODE
  Relative segment, address: 001104AC - 001104AF (0x4 bytes), align: 2
  Segment part 360.           Intra module refs:   cUiPowerOffTime
    -------------------------------------------------------------------------
CODE
  Relative segment, address: 001104B0 - 001104B3 (0x4 bytes), align: 2
  Segment part 361.           Intra module refs:   cUiPowerOffTime
    -------------------------------------------------------------------------
CODE
  Relative segment, address: 001104B4 - 001104B7 (0x4 bytes), align: 2
  Segment part 362.           Intra module refs:   cUiBtConnect
                                                   cUiPowerOffTime
    -------------------------------------------------------------------------
CODE
  Relative segment, address: 001104B8 - 001104BB (0x4 bytes), align: 2
  Segment part 363.           Intra module refs:   cUiPowerOffTime
    -------------------------------------------------------------------------
CODE
  Relative segment, address: 001104BC - 001104BF (0x4 bytes), align: 2
  Segment part 364.           Intra module refs:   cUiPowerOffTime
    -------------------------------------------------------------------------
CODE
  Relative segment, address: 001104C0 - 001104C3 (0x4 bytes), align: 2
  Segment part 365.           Intra module refs:   cUiPowerOffTime
    -------------------------------------------------------------------------
CODE
  Relative segment, address: 001104C4 - 001105D7 (0x114 bytes), align: 2
  Segment part 367.           Intra module refs:   Segment part 67
                                                   cUiCtrl
           ENTRY                   ADDRESS         REF BY
           =====                   =======         ======
           cUiBTConnectRequest     001104C5 
               stack 1 = 00000000 ( 00000014 )
    -------------------------------------------------------------------------
CODE
  Relative segment, address: 001105D8 - 001105DB (0x4 bytes), align: 2
  Segment part 368.           Intra module refs:   cUiBTConnectRequest
                                                   cUiPowerOffTime
    -------------------------------------------------------------------------
CODE
  Relative segment, address: 001105DC - 001105DF (0x4 bytes), align: 2
  Segment part 369.           Intra module refs:   cUiBTConnectRequest
    -------------------------------------------------------------------------
CODE
  Relative segment, address: 001105E0 - 001105E3 (0x4 bytes), align: 2
  Segment part 370.           Intra module refs:   cUiBTConnectRequest
    -------------------------------------------------------------------------
CODE
  Relative segment, address: 001105E4 - 0011075F (0x17c bytes), align: 2
  Segment part 372.           Intra module refs:   Segment part 67
           ENTRY                   ADDRESS         REF BY
           =====                   =======         ======
           cUiFilesDelete          001105E5 
               stack 1 = 00000000 ( 00000014 )
    -------------------------------------------------------------------------
CODE
  Relative segment, address: 00110760 - 00110763 (0x4 bytes), align: 2
  Segment part 373.           Intra module refs:   cUiFilesDelete
    -------------------------------------------------------------------------
CODE
  Relative segment, address: 00110764 - 00110767 (0x4 bytes), align: 2
  Segment part 374.           Intra module refs:   cUiFilesDelete
    -------------------------------------------------------------------------
CODE
  Relative segment, address: 00110768 - 0011076B (0x4 bytes), align: 2
  Segment part 375.           Intra module refs:   cUiFilesDelete
    -------------------------------------------------------------------------
CODE
  Relative segment, address: 0011076C - 0011076F (0x4 bytes), align: 2
  Segment part 376.           Intra module refs:   cUiFilesDelete
    -------------------------------------------------------------------------
CODE
  Relative segment, address: 00110770 - 00110773 (0x4 bytes), align: 2
  Segment part 377.           Intra module refs:   cUiFilesDelete
    -------------------------------------------------------------------------
CODE
  Relative segment, address: 00110774 - 00110777 (0x4 bytes), align: 2
  Segment part 378.           Intra module refs:   cUiFilesDelete
    -------------------------------------------------------------------------
CODE
  Relative segment, address: 00110778 - 0011077B (0x4 bytes), align: 2
  Segment part 379.           Intra module refs:   cUiFilesDelete
    -------------------------------------------------------------------------
CODE
  Relative segment, address: 0011077C - 0011077F (0x4 bytes), align: 2
  Segment part 380.           Intra module refs:   cUiBTConnectRequest
                                                   cUiFilesDelete
    -------------------------------------------------------------------------
CODE
  Relative segment, address: 00110780 - 00110783 (0x4 bytes), align: 2
  Segment part 381.           Intra module refs:   cUiFilesDelete
    -------------------------------------------------------------------------
CODE
  Relative segment, address: 00110784 - 0011085B (0xd8 bytes), align: 2
  Segment part 383.           Intra module refs:   Segment part 67
           ENTRY                   ADDRESS         REF BY
           =====                   =======         ======
           cUiOff                  00110785 
               stack 1 = 00000000 ( 0000001C )
    -------------------------------------------------------------------------
CODE
  Relative segment, address: 0011085C - 0011085F (0x4 bytes), align: 2
  Segment part 384.           Intra module refs:   cUiOff
    -------------------------------------------------------------------------
CODE
  Relative segment, address: 00110860 - 00110863 (0x4 bytes), align: 2
  Segment part 385.           Intra module refs:   cUiOff
    -------------------------------------------------------------------------
DATA_I
  Relative segment, address: 0000046C - 000004BF (0x54 bytes), align: 2
  Segment part 66.            Intra module refs:   cUiCtrl
           ENTRY                   ADDRESS         REF BY
           =====                   =======         ======
           Functions               0000046C 
    -------------------------------------------------------------------------
CODE
  Relative segment, address: 00110864 - 0011087B (0x18 bytes), align: 2
  Segment part 387.           Intra module refs:   cUi
           ENTRY                   ADDRESS         REF BY
           =====                   =======         ======
           cUiInit                 00110865 
    -------------------------------------------------------------------------
CODE
  Relative segment, address: 0011087C - 0011087F (0x4 bytes), align: 2
  Segment part 388.           Intra module refs:   cUiInit
                                                   cUiOff
    -------------------------------------------------------------------------
CODE
  Relative segment, address: 00110880 - 00110883 (0x4 bytes), align: 2
  Segment part 389.           Intra module refs:   cUiInit
                                                   cUiOff
    -------------------------------------------------------------------------
CODE
  Relative segment, address: 00110884 - 00110887 (0x4 bytes), align: 2
  Segment part 390.           Intra module refs:   cUiInit
                                                   cUiOff
    -------------------------------------------------------------------------
CODE
  Relative segment, address: 00110888 - 00111193 (0x90c bytes), align: 2
  Segment part 392.           Intra module refs:   cUi
           ENTRY                   ADDRESS         REF BY
           =====                   =======         ======
           cUiCtrl                 00110889 
               stack 1 = 00000000 ( 0000002C )
    -------------------------------------------------------------------------
CODE
  Relative segment, address: 00111194 - 00111197 (0x4 bytes), align: 2
  Segment part 393.           Intra module refs:   cUiCtrl
    -------------------------------------------------------------------------
CODE
  Relative segment, address: 00111198 - 0011119B (0x4 bytes), align: 2
  Segment part 394.           Intra module refs:   cUiCtrl
    -------------------------------------------------------------------------
CODE
  Relative segment, address: 0011119C - 0011119F (0x4 bytes), align: 2
  Segment part 395.           Intra module refs:   cUiCtrl
    -------------------------------------------------------------------------
CODE
  Relative segment, address: 001111A0 - 001111A3 (0x4 bytes), align: 2
  Segment part 396.           Intra module refs:   cUiCtrl
    -------------------------------------------------------------------------
CODE
  Relative segment, address: 001111A4 - 001111AF (0xc bytes), align: 2
  Segment part 398.           Intra module refs:   cUi
           ENTRY                   ADDRESS         REF BY
           =====                   =======         ======
           cUiExit                 001111A5 
    -------------------------------------------------------------------------
CODE
  Relative segment, address: 001111B0 - 001111B3 (0x4 bytes), align: 2
  Segment part 399.           Intra module refs:   cUiExit
    -------------------------------------------------------------------------
CODE
  Relative segment, address: 001111B4 - 001111B7 (0x4 bytes), align: 2
  Segment part 400.           Intra module refs:   cUiExit
    -------------------------------------------------------------------------
DATA_ID
  Relative segment, address: 00119B24 - 00119BF7 (0xd4 bytes), align: 2
  Segment part 23.            Intra module refs:   Segment part 22
    -------------------------------------------------------------------------
DATA_ID
  Relative segment, address: 00119BF8 - 00119C17 (0x20 bytes), align: 2
  Segment part 56.            Intra module refs:   MenuPointers
    -------------------------------------------------------------------------
DATA_ID
  Relative segment, address: 00119C18 - 00119C6B (0x54 bytes), align: 2
  Segment part 67.            Intra module refs:   Functions

    *************************************************************************

  FILE NAME : C:\Documents and Settings\Lane Kolbly\My Documents\GitHub\blindnxt\AT91SAM7S256\SAM7S256\Object\d_bt.r79
  PROGRAM MODULE, NAME : d_bt

  SEGMENTS IN THE MODULE
  ======================
DATA_Z
  Relative segment, address: 0000A8BC - 0000A9BB (0x100 bytes), align: 2
  Segment part 2.             Intra module refs:   Segment part 51
                                                   Segment part 7
           LOCAL                   ADDRESS         
           =====                   =======         
           InBuf                   0000A8BC 
    -------------------------------------------------------------------------
DATA_Z
  Relative segment, address: 0000A9BC - 0000A9D7 (0x1c bytes), align: 2
  Segment part 3.             Intra module refs:   Segment part 43
                                                   Segment part 56
                                                   Segment part 59
                                                   dBtResetTimeOut
           LOCAL                   ADDRESS         
           =====                   =======         
           CmdTOut                 0000A9C6 
           CmdTOutLimit            0000A9C8 
           DmaBufPtr               0000A9BE 
           FullRxLength            0000A9C2 
           InBufInPtr              0000A9BC 
           InBufOutCnt             0000A9C0 
           InBufPtrs               0000A9CC 
           LengthSize              0000A9BD 
           MsgIn                   0000A9BF 
           RemainingLength         0000A9C4 
           pBuffer                 0000A9D4 
    -------------------------------------------------------------------------
DATA_Z
  Relative segment, address: 0000A9D8 - 0000ABD7 (0x200 bytes), align: 2
  Segment part 4.             Intra module refs:   Segment part 44
                                                   Segment part 62
           LOCAL                   ADDRESS         
           =====                   =======         
           OutDma                  0000A9D8 
    -------------------------------------------------------------------------
CODE
  Relative segment, address: 001111B8 - 001112EB (0x134 bytes), align: 2
  Segment part 6.
           ENTRY                   ADDRESS         REF BY
           =====                   =======         ======
           dBtInit                 001111B9        cCommInit (c_comm)
               stack 1 = 00000000 ( 00000014 )
    -------------------------------------------------------------------------
CODE
  Relative segment, address: 001112EC - 001112EF (0x4 bytes), align: 2
  Segment part 7.             Intra module refs:   dBtInit
    -------------------------------------------------------------------------
CODE
  Relative segment, address: 001112F0 - 001112F3 (0x4 bytes), align: 2
  Segment part 8.             Intra module refs:   dBtInit
    -------------------------------------------------------------------------
CODE
  Relative segment, address: 001112F4 - 001112F7 (0x4 bytes), align: 2
  Segment part 9.             Intra module refs:   dBtInit
    -------------------------------------------------------------------------
CODE
  Relative segment, address: 001112F8 - 001112FB (0x4 bytes), align: 2
  Segment part 10.            Intra module refs:   dBtInit
    -------------------------------------------------------------------------
CODE
  Relative segment, address: 001112FC - 001112FF (0x4 bytes), align: 2
  Segment part 11.            Intra module refs:   dBtInit
    -------------------------------------------------------------------------
CODE
  Relative segment, address: 00111300 - 00111303 (0x4 bytes), align: 2
  Segment part 12.            Intra module refs:   dBtInit
    -------------------------------------------------------------------------
CODE
  Relative segment, address: 00111304 - 00111307 (0x4 bytes), align: 2
  Segment part 13.            Intra module refs:   dBtInit
    -------------------------------------------------------------------------
CODE
  Relative segment, address: 00111308 - 0011130B (0x4 bytes), align: 2
  Segment part 15.
           ENTRY                   ADDRESS         REF BY
           =====                   =======         ======
           dBtSetBcResetPinLow     00111309        cCommCtrl (c_comm)
                                                   cCommUpdateBt (c_comm)
                                                   cCommsBtReset (c_comm)
    -------------------------------------------------------------------------
CODE
  Relative segment, address: 0011130C - 0011130F (0x4 bytes), align: 2
  Segment part 17.
           ENTRY                   ADDRESS         REF BY
           =====                   =======         ======
           dBtSetBcResetPinHigh    0011130D        cCommsBtReset (c_comm)
    -------------------------------------------------------------------------
CODE
  Relative segment, address: 00111310 - 00111317 (0x8 bytes), align: 2
  Segment part 18.            Intra module refs:   dBtSetBcResetPinHigh
                                                   dBtSetBcResetPinLow
           LOCAL                   ADDRESS         
           =====                   =======         
           ?Subroutine18           00111311 
    -------------------------------------------------------------------------
CODE
  Relative segment, address: 00111318 - 00111343 (0x2c bytes), align: 2
  Segment part 20.
           ENTRY                   ADDRESS         REF BY
           =====                   =======         ======
           dBtStartADConverter     00111319        cCommCtrl (c_comm)
                                                   cCommInit (c_comm)
               stack 1 = 00000000 ( 00000004 )
    -------------------------------------------------------------------------
CODE
  Relative segment, address: 00111344 - 0011135D (0x1a bytes), align: 2
  Segment part 22.
           ENTRY                   ADDRESS         REF BY
           =====                   =======         ======
           dBtInitReceive          00111345        cCommCtrl (c_comm)
                                                   cCommInit (c_comm)
                                                   cCommUpdateBt (c_comm)
                                                   cCommsBtReset (c_comm)
                                                   cCommsOpenStream (c_comm)
                                                   cCommsSetCmdMode (c_comm)
               stack 1 = 00000000 ( 00000004 )
    -------------------------------------------------------------------------
CODE
  Relative segment, address: 00111360 - 00111363 (0x4 bytes), align: 2
  Segment part 24.
           ENTRY                   ADDRESS         REF BY
           =====                   =======         ======
           dBtSetArm7CmdSignal     00111361        cCommCtrl (c_comm)
                                                   cCommUpdateBt (c_comm)
                                                   cCommsOpenStream (c_comm)
    -------------------------------------------------------------------------
CODE
  Relative segment, address: 00111364 - 00111367 (0x4 bytes), align: 2
  Segment part 25.            Intra module refs:   dBtInit
                                                   dBtSetArm7CmdSignal
                                                   dBtSetBcResetPinHigh
    -------------------------------------------------------------------------
CODE
  Relative segment, address: 00111368 - 0011136B (0x4 bytes), align: 2
  Segment part 27.
           ENTRY                   ADDRESS         REF BY
           =====                   =======         ======
           dBtClearArm7CmdSignal   00111369        cCommCtrl (c_comm)
                                                   cCommsBtReset (c_comm)
                                                   cCommsSetCmdMode (c_comm)
    -------------------------------------------------------------------------
CODE
  Relative segment, address: 0011136C - 00111373 (0x8 bytes), align: 2
  Segment part 28.            Intra module refs:   dBtClearArm7CmdSignal
                                                   dBtSetArm7CmdSignal
           LOCAL                   ADDRESS         
           =====                   =======         
           ?Subroutine19           0011136D 
    -------------------------------------------------------------------------
CODE
  Relative segment, address: 00111374 - 00111377 (0x4 bytes), align: 2
  Segment part 29.            Intra module refs:   dBtClearArm7CmdSignal
                                                   dBtInit
                                                   dBtSetBcResetPinLow
    -------------------------------------------------------------------------
CODE
  Relative segment, address: 00111378 - 00111397 (0x20 bytes), align: 2
  Segment part 31.
           ENTRY                   ADDRESS         REF BY
           =====                   =======         ======
           dBtGetBc4CmdSignal      00111379        cCommCtrl (c_comm)
               stack 1 = 00000000 ( 00000004 )
    -------------------------------------------------------------------------
CODE
  Relative segment, address: 00111398 - 001113AF (0x18 bytes), align: 2
  Segment part 33.
           ENTRY                   ADDRESS         REF BY
           =====                   =======         ======
           dBtTxEnd                00111399        cCommsSetCmdMode (c_comm)
               stack 1 = 00000000 ( 00000004 )
    -------------------------------------------------------------------------
CODE
  Relative segment, address: 001113B0 - 001113B3 (0x4 bytes), align: 2
  Segment part 34.            Intra module refs:   dBtInit
                                                   dBtTxEnd
    -------------------------------------------------------------------------
CODE
  Relative segment, address: 001113B4 - 001113C7 (0x14 bytes), align: 2
  Segment part 36.
           ENTRY                   ADDRESS         REF BY
           =====                   =======         ======
           dBtCheckForTxBuf        001113B5        cCommUpdateBt (c_comm)
               stack 1 = 00000000 ( 00000004 )
    -------------------------------------------------------------------------
CODE
  Relative segment, address: 001113C8 - 00111427 (0x60 bytes), align: 2
  Segment part 38.
           ENTRY                   ADDRESS         REF BY
           =====                   =======         ======
           dBtSendMsg              001113C9        cCommReceivedBtData (c_comm)
                                                   cCommUpdateBt (c_comm)
               stack 1 = 00000000 ( 00000018 )
    -------------------------------------------------------------------------
CODE
  Relative segment, address: 00111428 - 0011146F (0x48 bytes), align: 2
  Segment part 40.
           ENTRY                   ADDRESS         REF BY
           =====                   =======         ======
           dBtSend                 00111429        cCommUpdateBt (c_comm)
               stack 1 = 00000000 ( 00000014 )
    -------------------------------------------------------------------------
CODE
  Relative segment, address: 00111470 - 00111475 (0x6 bytes), align: 2
  Segment part 41.            Intra module refs:   dBtInit
                                                   dBtSend
                                                   dBtSendBtCmd
           LOCAL                   ADDRESS         
           =====                   =======         
           ?Subroutine17           00111471 
    -------------------------------------------------------------------------
CODE
  Relative segment, address: 00111478 - 0011147B (0x4 bytes), align: 2
  Segment part 42.            Intra module refs:   dBtCheckForTxBuf
                                                   dBtSend
                                                   dBtSendMsg
                                                   dBtTxEnd
    -------------------------------------------------------------------------
CODE
  Relative segment, address: 0011147C - 0011147F (0x4 bytes), align: 2
  Segment part 43.            Intra module refs:   dBtInit
                                                   dBtInitReceive
                                                   dBtSend
                                                   dBtSendMsg
    -------------------------------------------------------------------------
CODE
  Relative segment, address: 00111480 - 00111483 (0x4 bytes), align: 2
  Segment part 44.            Intra module refs:   dBtSend
                                                   dBtSendMsg
    -------------------------------------------------------------------------
CODE
  Relative segment, address: 00111484 - 00111487 (0x4 bytes), align: 2
  Segment part 45.            Intra module refs:   dBtInit
                                                   dBtSend
                                                   dBtSendMsg
    -------------------------------------------------------------------------
CODE
  Relative segment, address: 00111488 - 00111669 (0x1e2 bytes), align: 2
  Segment part 47.
           ENTRY                   ADDRESS         REF BY
           =====                   =======         ======
           dBtReceivedData         00111489        cCommReceivedBtData (c_comm)
               stack 1 = 00000000 ( 0000001C )
    -------------------------------------------------------------------------
CODE
  Relative segment, address: 0011166C - 0011166F (0x4 bytes), align: 2
  Segment part 48.            Intra module refs:   dBtReceivedData
    -------------------------------------------------------------------------
CODE
  Relative segment, address: 00111670 - 00111673 (0x4 bytes), align: 2
  Segment part 49.            Intra module refs:   dBtReceivedData
    -------------------------------------------------------------------------
CODE
  Relative segment, address: 00111674 - 00111677 (0x4 bytes), align: 2
  Segment part 50.            Intra module refs:   dBtReceivedData
    -------------------------------------------------------------------------
CODE
  Relative segment, address: 00111678 - 0011167B (0x4 bytes), align: 2
  Segment part 51.            Intra module refs:   dBtReceivedData
    -------------------------------------------------------------------------
CODE
  Relative segment, address: 0011167C - 00111687 (0xc bytes), align: 2
  Segment part 53.
           ENTRY                   ADDRESS         REF BY
           =====                   =======         ======
           dBtResetTimeOut         0011167D        cCommUpdateBt (c_comm)
    -------------------------------------------------------------------------
CODE
  Relative segment, address: 00111688 - 00111691 (0xa bytes), align: 2
  Segment part 55.
           ENTRY                   ADDRESS         REF BY
           =====                   =======         ======
           dBtClearTimeOut         00111689        cCommCtrl (c_comm)
                                                   cCommUpdateBt (c_comm)
                                                   cCommsOpenStream (c_comm)
    -------------------------------------------------------------------------
CODE
  Relative segment, address: 00111694 - 00111697 (0x4 bytes), align: 2
  Segment part 56.            Intra module refs:   dBtClearTimeOut
                                                   dBtReceivedData
    -------------------------------------------------------------------------
CODE
  Relative segment, address: 00111698 - 00111917 (0x280 bytes), align: 2
  Segment part 58.
           ENTRY                   ADDRESS         REF BY
           =====                   =======         ======
           dBtSendBtCmd            00111699        cCommUpdateBt (c_comm)
                                                   cCommsCloseConn0 (c_comm)
                                                   cCommsDisconnectAll (c_comm)
                                                   cCommsOpenStream (c_comm)
               stack 1 = 00000000 ( 000000A4 )
    -------------------------------------------------------------------------
CODE
  Relative segment, address: 00111918 - 0011191B (0x4 bytes), align: 2
  Segment part 59.            Intra module refs:   dBtSendBtCmd
    -------------------------------------------------------------------------
CODE
  Relative segment, address: 0011191C - 0011191F (0x4 bytes), align: 2
  Segment part 60.            Intra module refs:   dBtSendBtCmd
    -------------------------------------------------------------------------
CODE
  Relative segment, address: 00111920 - 00111923 (0x4 bytes), align: 2
  Segment part 61.            Intra module refs:   dBtSendBtCmd
    -------------------------------------------------------------------------
CODE
  Relative segment, address: 00111924 - 00111927 (0x4 bytes), align: 2
  Segment part 62.            Intra module refs:   dBtSendBtCmd
    -------------------------------------------------------------------------
CODE
  Relative segment, address: 00111928 - 00111943 (0x1c bytes), align: 2
  Segment part 64.
           ENTRY                   ADDRESS         REF BY
           =====                   =======         ======
           dBtExit                 00111929        cCommExit (c_comm)
    -------------------------------------------------------------------------
CODE
  Relative segment, address: 00111944 - 00111947 (0x4 bytes), align: 2
  Segment part 65.            Intra module refs:   dBtExit
    -------------------------------------------------------------------------
CODE
  Relative segment, address: 00111948 - 0011194B (0x4 bytes), align: 2
  Segment part 66.            Intra module refs:   dBtExit
    -------------------------------------------------------------------------
CODE
  Relative segment, address: 0011194C - 0011194F (0x4 bytes), align: 2
  Segment part 67.            Intra module refs:   dBtExit

    *************************************************************************

  FILE NAME : C:\Documents and Settings\Lane Kolbly\My Documents\GitHub\blindnxt\AT91SAM7S256\SAM7S256\Object\d_button.r79
  PROGRAM MODULE, NAME : d_button

  SEGMENTS IN THE MODULE
  ======================
DATA_Z
  Relative segment, address: 0000ABD8 - 0000ABE1 (0xa bytes), align: 2
  Segment part 2.             Intra module refs:   Segment part 7
           LOCAL                   ADDRESS         
           =====                   =======         
           OldState                0000ABD8 
           OldVal                  0000ABE0 
           PrellCnt                0000ABDC 
           RisingTime              0000ABD9 
           TimeTick                0000ABDA 
    -------------------------------------------------------------------------
CODE
  Relative segment, address: 00111950 - 0011197F (0x30 bytes), align: 2
  Segment part 4.
           ENTRY                   ADDRESS         REF BY
           =====                   =======         ======
           dButtonInit             00111951        cButtonInit (c_button)
               stack 1 = 00000000 ( 00000008 )
    -------------------------------------------------------------------------
CODE
  Relative segment, address: 00111980 - 00111A2F (0xb0 bytes), align: 2
  Segment part 6.
           ENTRY                   ADDRESS         REF BY
           =====                   =======         ======
           dButtonRead             00111981        cButtonCtrl (c_button)
               stack 1 = 00000000 ( 00000014 )
    -------------------------------------------------------------------------
CODE
  Relative segment, address: 00111A30 - 00111A33 (0x4 bytes), align: 2
  Segment part 7.             Intra module refs:   dButtonInit
                                                   dButtonRead
    -------------------------------------------------------------------------
CODE
  Relative segment, address: 00111A34 - 00111A35 (0x2 bytes), align: 2
  Segment part 9.
           ENTRY                   ADDRESS         REF BY
           =====                   =======         ======
           dButtonExit             00111A35        cButtonExit (c_button)

    *************************************************************************

  FILE NAME : C:\Documents and Settings\Lane Kolbly\My Documents\GitHub\blindnxt\AT91SAM7S256\SAM7S256\Object\d_display.r79
  PROGRAM MODULE, NAME : d_display

  SEGMENTS IN THE MODULE
  ======================
CODE
  Relative segment, address: 00111A38 - 00111A83 (0x4c bytes), align: 2
  Segment part 9.             Intra module refs:   DisplayUpdate
           ENTRY                   ADDRESS         REF BY
           =====                   =======         ======
           DisplayWrite            00111A39 
               stack 1 = 00000000 ( 00000008 )
    -------------------------------------------------------------------------
CODE
  Relative segment, address: 00111A84 - 00111AF3 (0x70 bytes), align: 2
  Segment part 11.            Intra module refs:   dDisplayUpdate
           ENTRY                   ADDRESS         REF BY
           =====                   =======         ======
           DisplayUpdate           00111A85 
               stack 1 = 00000000 ( 00000014 )
    -------------------------------------------------------------------------
DATA_I
  Relative segment, address: 000004C0 - 000004EB (0x2c bytes), align: 2
  Segment part 2.             Intra module refs:   Segment part 17
           ENTRY                   ADDRESS         REF BY
           =====                   =======         ======
           DisplayInitString       000004C0 
           DisplayLineString       000004D4 
           LOCAL                   ADDRESS         
           =====                   =======         
           DisplayUpdate::Line     000004D2 
           DisplayUpdate::State    000004D0 
    -------------------------------------------------------------------------
CODE
  Relative segment, address: 00111AF4 - 00111BBF (0xcc bytes), align: 2
  Segment part 13.
           ENTRY                   ADDRESS         REF BY
           =====                   =======         ======
           dDisplayInit            00111AF5        cDisplayInit (c_display)
               stack 1 = 00000000 ( 00000010 )
    -------------------------------------------------------------------------
CODE
  Relative segment, address: 00111BC0 - 00111BC3 (0x4 bytes), align: 2
  Segment part 14.            Intra module refs:   DisplayWrite
                                                   dDisplayInit
    -------------------------------------------------------------------------
CODE
  Relative segment, address: 00111BC4 - 00111BDB (0x18 bytes), align: 2
  Segment part 16.
           ENTRY                   ADDRESS         REF BY
           =====                   =======         ======
           dDisplayOn              00111BC5        cDisplayCtrl (c_display)
               stack 1 = 00000000 ( 00000004 )
    -------------------------------------------------------------------------
CODE
  Relative segment, address: 00111BDC - 00111BDF (0x4 bytes), align: 2
  Segment part 17.            Intra module refs:   DisplayUpdate
                                                   dDisplayOn
    -------------------------------------------------------------------------
CODE
  Relative segment, address: 00111BE0 - 00111BE9 (0xa bytes), align: 2
  Segment part 19.
           ENTRY                   ADDRESS         REF BY
           =====                   =======         ======
           dDisplayUpdate          00111BE1        cDisplayCtrl (c_display)
               stack 1 = 00000000 ( 00000004 )
    -------------------------------------------------------------------------
CODE
  Relative segment, address: 00111BEC - 00111BED (0x2 bytes), align: 2
  Segment part 21.
           ENTRY                   ADDRESS         REF BY
           =====                   =======         ======
           dDisplayExit            00111BED        cDisplayExit (c_display)
    -------------------------------------------------------------------------
DATA_ID
  Relative segment, address: 00119C6C - 00119C97 (0x2c bytes), align: 2
  Segment part 3.             Intra module refs:   Segment part 2
    -------------------------------------------------------------------------
CODE_ID
  Relative segment, address: 00120694, align: 2
  Segment part 23.
           ENTRY                   ADDRESS         REF BY
           =====                   =======         ======
           ?*?CODE_ID              00120694 
    -------------------------------------------------------------------------
INITTAB
  Relative segment, address: 001198A0 - 001198AB (0xc bytes), align: 2
  Segment part 24. ROOT.
           ENTRY                   ADDRESS         REF BY
           =====                   =======         ======
           ?init?tab?CODE_I        001198A0 

    *************************************************************************

  FILE NAME : C:\Documents and Settings\Lane Kolbly\My Documents\GitHub\blindnxt\AT91SAM7S256\SAM7S256\Object\d_hispeed.r79
  PROGRAM MODULE, NAME : d_hispeed

  SEGMENTS IN THE MODULE
  ======================
DATA_Z
  Relative segment, address: 0000ABE4 - 0000ACE3 (0x100 bytes), align: 2
  Segment part 2.             Intra module refs:   Segment part 28
           LOCAL                   ADDRESS         
           =====                   =======         
           InBuf                   0000ABE4 
    -------------------------------------------------------------------------
DATA_Z
  Relative segment, address: 0000ACE4 - 0000ACF3 (0x10 bytes), align: 2
  Segment part 3.             Intra module refs:   Segment part 27
           LOCAL                   ADDRESS         
           =====                   =======         
           InBufInPtr              0000ACE4 
           InBufOutCnt             0000ACE6 
           InBufPtrs               0000ACE8 
           MsgIn                   0000ACE5 
           pBuffer                 0000ACF0 
    -------------------------------------------------------------------------
DATA_Z
  Relative segment, address: 0000ACF4 - 0000AD73 (0x80 bytes), align: 2
  Segment part 4.             Intra module refs:   dHiSpeedSendData
           LOCAL                   ADDRESS         
           =====                   =======         
           OutDma                  0000ACF4 
    -------------------------------------------------------------------------
DATA_Z
  Relative segment, address: 0000BAC6 - 0000BAC6 (0x1 bytes), align: 0
  Segment part 5.             Intra module refs:   dHiSpeedSendData
           LOCAL                   ADDRESS         
           =====                   =======         
           DmaBufPtr               0000BAC6 
    -------------------------------------------------------------------------
CODE
  Relative segment, address: 00111BF0 - 00111BF1 (0x2 bytes), align: 2
  Segment part 7.
           ENTRY                   ADDRESS         REF BY
           =====                   =======         ======
           dHiSpeedInit            00111BF1        cCommInit (c_comm)
    -------------------------------------------------------------------------
CODE
  Relative segment, address: 00111BF4 - 00111C47 (0x54 bytes), align: 2
  Segment part 9.
           ENTRY                   ADDRESS         REF BY
           =====                   =======         ======
           dHiSpeedSendData        00111BF5        cCommSendHiSpeedData (c_comm)
               stack 1 = 00000000 ( 00000018 )
    -------------------------------------------------------------------------
CODE
  Relative segment, address: 00111C48 - 00111D37 (0xf0 bytes), align: 2
  Segment part 11.
           ENTRY                   ADDRESS         REF BY
           =====                   =======         ======
           dHiSpeedSetupUart       00111C49        cCommCtrl (c_comm)
               stack 1 = 00000000 ( 00000014 )
    -------------------------------------------------------------------------
CODE
  Relative segment, address: 00111D38 - 00111D9F (0x68 bytes), align: 2
  Segment part 13.
           ENTRY                   ADDRESS         REF BY
           =====                   =======         ======
           dHiSpeedInitReceive     00111D39        cCommCtrl (c_comm)
               stack 1 = 00000000 ( 00000010 )
    -------------------------------------------------------------------------
CODE
  Relative segment, address: 00111DA0 - 00111DA3 (0x4 bytes), align: 2
  Segment part 14.            Intra module refs:   dHiSpeedInitReceive
                                                   dHiSpeedSetupUart
    -------------------------------------------------------------------------
CODE
  Relative segment, address: 00111DA4 - 00111DA7 (0x4 bytes), align: 2
  Segment part 15.            Intra module refs:   dHiSpeedInitReceive
                                                   dHiSpeedSetupUart
    -------------------------------------------------------------------------
CODE
  Relative segment, address: 00111DA8 - 00111DAB (0x4 bytes), align: 2
  Segment part 16.            Intra module refs:   dHiSpeedInitReceive
                                                   dHiSpeedSetupUart
    -------------------------------------------------------------------------
CODE
  Relative segment, address: 00111DAC - 00111DAF (0x4 bytes), align: 2
  Segment part 17.            Intra module refs:   dHiSpeedInitReceive
                                                   dHiSpeedSendData
                                                   dHiSpeedSetupUart
    -------------------------------------------------------------------------
CODE
  Relative segment, address: 00111DB0 - 00111DB3 (0x4 bytes), align: 2
  Segment part 18.            Intra module refs:   dHiSpeedInitReceive
                                                   dHiSpeedSetupUart
    -------------------------------------------------------------------------
CODE
  Relative segment, address: 00111DB4 - 00111DB7 (0x4 bytes), align: 2
  Segment part 19.            Intra module refs:   dHiSpeedInitReceive
                                                   dHiSpeedSetupUart
    -------------------------------------------------------------------------
CODE
  Relative segment, address: 00111DB8 - 00111DBB (0x4 bytes), align: 2
  Segment part 20.            Intra module refs:   dHiSpeedInitReceive
                                                   dHiSpeedSetupUart
    -------------------------------------------------------------------------
CODE
  Relative segment, address: 00111DBC - 00111DBF (0x4 bytes), align: 2
  Segment part 21.            Intra module refs:   dHiSpeedInitReceive
                                                   dHiSpeedSetupUart
    -------------------------------------------------------------------------
CODE
  Relative segment, address: 00111DC0 - 00111E47 (0x88 bytes), align: 2
  Segment part 23.
           ENTRY                   ADDRESS         REF BY
           =====                   =======         ======
           dHiSpeedReceivedData    00111DC1        cCommReceivedHiSpeedData (c_comm)
               stack 1 = 00000000 ( 00000014 )
    -------------------------------------------------------------------------
CODE
  Relative segment, address: 00111E48 - 00111E4D (0x6 bytes), align: 2
  Segment part 24.            Intra module refs:   dHiSpeedReceivedData
                                                   dHiSpeedSetupUart
           LOCAL                   ADDRESS         
           =====                   =======         
           ?Subroutine7            00111E49 
    -------------------------------------------------------------------------
CODE
  Relative segment, address: 00111E50 - 00111E53 (0x4 bytes), align: 2
  Segment part 25.            Intra module refs:   dHiSpeedInitReceive
                                                   dHiSpeedReceivedData
                                                   dHiSpeedSetupUart
    -------------------------------------------------------------------------
CODE
  Relative segment, address: 00111E54 - 00111E57 (0x4 bytes), align: 2
  Segment part 26.            Intra module refs:   dHiSpeedInitReceive
                                                   dHiSpeedReceivedData
                                                   dHiSpeedSetupUart
    -------------------------------------------------------------------------
CODE
  Relative segment, address: 00111E58 - 00111E5B (0x4 bytes), align: 2
  Segment part 27.            Intra module refs:   dHiSpeedInitReceive
                                                   dHiSpeedReceivedData
                                                   dHiSpeedSetupUart
    -------------------------------------------------------------------------
CODE
  Relative segment, address: 00111E5C - 00111E5F (0x4 bytes), align: 2
  Segment part 28.            Intra module refs:   dHiSpeedInitReceive
                                                   dHiSpeedReceivedData
                                                   dHiSpeedSetupUart
    -------------------------------------------------------------------------
CODE
  Relative segment, address: 00111E60 - 00111E63 (0x4 bytes), align: 2
  Segment part 29.            Intra module refs:   dHiSpeedInitReceive
                                                   dHiSpeedReceivedData
                                                   dHiSpeedSetupUart
    -------------------------------------------------------------------------
CODE
  Relative segment, address: 00111E64 - 00111E6B (0x8 bytes), align: 2
  Segment part 31.
           ENTRY                   ADDRESS         REF BY
           =====                   =======         ======
           dHiSpeedExit            00111E65        cCommCtrl (c_comm)
                                                   cCommExit (c_comm)
    -------------------------------------------------------------------------
CODE
  Relative segment, address: 00111E6C - 00111E83 (0x18 bytes), align: 2
  Segment part 32.            Intra module refs:   dHiSpeedExit
                                                   dHiSpeedInit
           LOCAL                   ADDRESS         
           =====                   =======         
           ?Subroutine6            00111E6D 
    -------------------------------------------------------------------------
CODE
  Relative segment, address: 00111E84 - 00111E87 (0x4 bytes), align: 2
  Segment part 33.            Intra module refs:   ?Subroutine6
    -------------------------------------------------------------------------
CODE
  Relative segment, address: 00111E88 - 00111E8B (0x4 bytes), align: 2
  Segment part 34.            Intra module refs:   ?Subroutine6
                                                   dHiSpeedSetupUart
    -------------------------------------------------------------------------
CODE
  Relative segment, address: 00111E8C - 00111E8F (0x4 bytes), align: 2
  Segment part 35.            Intra module refs:   ?Subroutine6
    -------------------------------------------------------------------------
CODE
  Relative segment, address: 00111E90 - 00111E93 (0x4 bytes), align: 2
  Segment part 36.            Intra module refs:   ?Subroutine6

    *************************************************************************

  FILE NAME : C:\Documents and Settings\Lane Kolbly\My Documents\GitHub\blindnxt\AT91SAM7S256\SAM7S256\Object\d_input.r79
  PROGRAM MODULE, NAME : d_input

  SEGMENTS IN THE MODULE
  ======================
DATA_C
  Relative segment, address: 0012034C - 0012036B (0x20 bytes), align: 2
  Segment part 2.             Intra module refs:   Segment part 58
                                                   Segment part 71
                                                   Segment part 95
           ENTRY                   ADDRESS         REF BY
           =====                   =======         ======
           Digi0Alloc              0012034C 
           Digi1Alloc              0012035C 
    -------------------------------------------------------------------------
DATA_C
  Relative segment, address: 0012036C - 0012037B (0x10 bytes), align: 2
  Segment part 3.             Intra module refs:   Segment part 13
           ENTRY                   ADDRESS         REF BY
           =====                   =======         ======
           ADPinDef                0012036C 
    -------------------------------------------------------------------------
DATA_I
  Relative segment, address: 000004EC - 000004FB (0x10 bytes), align: 2
  Segment part 4.             Intra module refs:   GetAdVals
           ENTRY                   ADDRESS         REF BY
           =====                   =======         ======
           ADValRegs               000004EC 
    -------------------------------------------------------------------------
DATA_Z
  Relative segment, address: 0000AD74 - 0000AD7B (0x8 bytes), align: 2
  Segment part 6.             Intra module refs:   Segment part 69
                                                   Segment part 84
                                                   dInputSetColorClkInput
           LOCAL                   ADDRESS         
           =====                   =======         
           ColorClkDef             0000AD78 
           ColorReset              0000AD74 
    -------------------------------------------------------------------------
DATA_Z
  Relative segment, address: 0000AD7C - 0000AD8B (0x10 bytes), align: 2
  Segment part 7.             Intra module refs:   Segment part 91
           LOCAL                   ADDRESS         
           =====                   =======         
           ColorTimer              0000AD7C 
    -------------------------------------------------------------------------
CODE
  Relative segment, address: 00111E94 - 00111EBF (0x2c bytes), align: 2
  Segment part 9.             Intra module refs:   dInputGetColor
           ENTRY                   ADDRESS         REF BY
           =====                   =======         ======
           rInputSingleADC         00111E95 
               stack 1 = 00000000 ( 00000008 )
    -------------------------------------------------------------------------
CODE
  Relative segment, address: 00111EC0 - 00111F5B (0x9c bytes), align: 2
  Segment part 11.            Intra module refs:   dInputGetAllColors
           ENTRY                   ADDRESS         REF BY
           =====                   =======         ======
           GetAdVals               00111EC1 
               stack 1 = 00000000 ( 00000024 )
    -------------------------------------------------------------------------
CODE
  Relative segment, address: 00111F5C - 00111F5F (0x4 bytes), align: 2
  Segment part 12.            Intra module refs:   GetAdVals
                                                   rInputSingleADC
    -------------------------------------------------------------------------
CODE
  Relative segment, address: 00111F60 - 00111F63 (0x4 bytes), align: 2
  Segment part 13.            Intra module refs:   GetAdVals
                                                   rInputSingleADC
    -------------------------------------------------------------------------
CODE
  Relative segment, address: 00111F64 - 00111F67 (0x4 bytes), align: 2
  Segment part 14.            Intra module refs:   GetAdVals
                                                   rInputSingleADC
    -------------------------------------------------------------------------
CODE
  Relative segment, address: 00111F68 - 00111F77 (0x10 bytes), align: 2
  Segment part 16.            Intra module refs:   dInputColorTx
                                                   dInputReadCal
           ENTRY                   ADDRESS         REF BY
           =====                   =======         ======
           rInputWait2uS           00111F69 
               stack 1 = 00000000 ( 00000004 )
    -------------------------------------------------------------------------
CODE
  Relative segment, address: 00111F78 - 00111F87 (0x10 bytes), align: 2
  Segment part 18.            Intra module refs:   dInputGetAllColors
           ENTRY                   ADDRESS         REF BY
           =====                   =======         ======
           rInputWait20uS          00111F79 
               stack 1 = 00000000 ( 00000004 )
    -------------------------------------------------------------------------
CODE
  Relative segment, address: 00111F88 - 00111F97 (0x10 bytes), align: 2
  Segment part 20.            Intra module refs:   dInputColorTx
           ENTRY                   ADDRESS         REF BY
           =====                   =======         ======
           rInputWait30uS          00111F89 
               stack 1 = 00000000 ( 00000004 )
    -------------------------------------------------------------------------
CODE
  Relative segment, address: 00111F98 - 00111F9B (0x4 bytes), align: 2
  Segment part 21.            Intra module refs:   rInputWait20uS
                                                   rInputWait2uS
                                                   rInputWait30uS
    -------------------------------------------------------------------------
CODE
  Relative segment, address: 00111F9C - 00111FF7 (0x5c bytes), align: 2
  Segment part 23.
           ENTRY                   ADDRESS         REF BY
           =====                   =======         ======
           dInputInit              00111F9D        cInputInit (c_input)
               stack 1 = 00000000 ( 00000010 )
    -------------------------------------------------------------------------
CODE
  Relative segment, address: 00111FF8 - 00112007 (0x10 bytes), align: 2
  Segment part 25.
           ENTRY                   ADDRESS         REF BY
           =====                   =======         ======
           dInputSetColorClkInput
                                   00111FF9        cInputCtrl (c_input)
    -------------------------------------------------------------------------
CODE
  Relative segment, address: 00112008 - 001120C7 (0xc0 bytes), align: 2
  Segment part 27.
           ENTRY                   ADDRESS         REF BY
           =====                   =======         ======
           dInputGetAllColors      00112009        cInputCtrl (c_input)
               stack 1 = 00000000 ( 00000018 )
    -------------------------------------------------------------------------
CODE
  Relative segment, address: 001120C8 - 001120CB (0x4 bytes), align: 2
  Segment part 28.            Intra module refs:   dInputGetAllColors
                                                   rInputSingleADC
    -------------------------------------------------------------------------
CODE
  Relative segment, address: 001120CC - 001120CF (0x4 bytes), align: 2
  Segment part 29.            Intra module refs:   dInputGetAllColors
                                                   rInputSingleADC
    -------------------------------------------------------------------------
CODE
  Relative segment, address: 001120D0 - 001120DD (0xe bytes), align: 2
  Segment part 31.
           ENTRY                   ADDRESS         REF BY
           =====                   =======         ======
           dInputGetRawAd          001120D1        cInputCalcSensorValues (c_input)
    -------------------------------------------------------------------------
CODE
  Relative segment, address: 001120E0 - 001120E3 (0x4 bytes), align: 2
  Segment part 32.            Intra module refs:   dInputGetRawAd
                                                   dInputInit
    -------------------------------------------------------------------------
CODE
  Relative segment, address: 001120E4 - 001120EB (0x8 bytes), align: 2
  Segment part 38.
           ENTRY                   ADDRESS         REF BY
           =====                   =======         ======
           dInputSetDirInDigi0     001120E5        cInputCalcSensorValues (c_input)
                                                   cInputSetupType (c_input)
    -------------------------------------------------------------------------
CODE
  Relative segment, address: 001120EC - 001120F3 (0x8 bytes), align: 2
  Segment part 40.
           ENTRY                   ADDRESS         REF BY
           =====                   =======         ======
           dInputSetDirInDigi1     001120ED        cInputInitColorSensor (c_input)
                                                   cInputSetupCustomSensor (c_input)
                                                   cInputSetupType (c_input)
    -------------------------------------------------------------------------
CODE
  Relative segment, address: 001120F4 - 001120FD (0xa bytes), align: 2
  Segment part 41.            Intra module refs:   dInputSetDirInDigi0
                                                   dInputSetDirInDigi1
           LOCAL                   ADDRESS         
           =====                   =======         
           ?Subroutine31           001120F5 
    -------------------------------------------------------------------------
CODE
  Relative segment, address: 00112100 - 00112103 (0x4 bytes), align: 2
  Segment part 42.            Intra module refs:   ?Subroutine31
                                                   dInputInit
                                                   dInputSetColorClkInput
    -------------------------------------------------------------------------
CODE
  Relative segment, address: 00112104 - 0011210B (0x8 bytes), align: 2
  Segment part 44.
           ENTRY                   ADDRESS         REF BY
           =====                   =======         ======
           dInputClearDigi0        00112105        cInputInitColorSensor (c_input)
                                                   cInputSetupCustomSensor (c_input)
                                                   cInputSetupType (c_input)
    -------------------------------------------------------------------------
CODE
  Relative segment, address: 0011210C - 00112113 (0x8 bytes), align: 2
  Segment part 46.
           ENTRY                   ADDRESS         REF BY
           =====                   =======         ======
           dInputClearDigi1        0011210D        cInputSetupCustomSensor (c_input)
                                                   cInputSetupType (c_input)
    -------------------------------------------------------------------------
CODE
  Relative segment, address: 00112114 - 00112121 (0xe bytes), align: 2
  Segment part 47.            Intra module refs:   dInputClearDigi0
                                                   dInputClearDigi1
                                                   dInputSetDigi0
                                                   dInputSetDigi1
           LOCAL                   ADDRESS         
           =====                   =======         
           ?Subroutine30           00112115 
    -------------------------------------------------------------------------
CODE
  Relative segment, address: 00112124 - 00112127 (0x4 bytes), align: 2
  Segment part 48.            Intra module refs:   ?Subroutine30
                                                   ?Subroutine31
                                                   dInputInit
    -------------------------------------------------------------------------
CODE
  Relative segment, address: 00112128 - 00112131 (0xa bytes), align: 2
  Segment part 50.
           ENTRY                   ADDRESS         REF BY
           =====                   =======         ======
           dInputSetDigi0          00112129        cInputInitColorSensor (c_input)
                                                   cInputSetupCustomSensor (c_input)
                                                   cInputSetupType (c_input)
    -------------------------------------------------------------------------
CODE
  Relative segment, address: 00112134 - 0011213F (0xc bytes), align: 2
  Segment part 52.
           ENTRY                   ADDRESS         REF BY
           =====                   =======         ======
           dInputSetDigi1          00112135        cInputInitColorSensor (c_input)
                                                   cInputSetupCustomSensor (c_input)
                                                   cInputSetupType (c_input)
    -------------------------------------------------------------------------
CODE
  Relative segment, address: 00112140 - 0011215D (0x1e bytes), align: 2
  Segment part 54.
           ENTRY                   ADDRESS         REF BY
           =====                   =======         ======
           dInputRead0             00112141        cInputCalcSensorValues (c_input)
                                                   cInputInit (c_input)
               stack 1 = 00000000 ( 00000008 )
    -------------------------------------------------------------------------
CODE
  Relative segment, address: 00112160 - 0011217F (0x20 bytes), align: 2
  Segment part 56.
           ENTRY                   ADDRESS         REF BY
           =====                   =======         ======
           dInputRead1             00112161        cInputCalcSensorValues (c_input)
                                                   cInputInit (c_input)
               stack 1 = 00000000 ( 00000008 )
    -------------------------------------------------------------------------
CODE
  Relative segment, address: 00112180 - 00112187 (0x8 bytes), align: 2
  Segment part 57.            Intra module refs:   dInputRead0
                                                   dInputRead1
                                                   rInputSingleADC
           LOCAL                   ADDRESS         
           =====                   =======         
           ?Subroutine29           00112181 
    -------------------------------------------------------------------------
CODE
  Relative segment, address: 00112188 - 0011218B (0x4 bytes), align: 2
  Segment part 58.            Intra module refs:   dInputClearDigi1
                                                   dInputRead1
                                                   dInputSetDigi1
                                                   dInputSetDirInDigi1
    -------------------------------------------------------------------------
CODE
  Relative segment, address: 0011218C - 00112199 (0xe bytes), align: 2
  Segment part 60.
           ENTRY                   ADDRESS         REF BY
           =====                   =======         ======
           dInputSetActive         0011218D        cInputSetupCustomSensor (c_input)
                                                   cInputSetupType (c_input)
    -------------------------------------------------------------------------
CODE
  Relative segment, address: 0011219C - 001121A7 (0xc bytes), align: 2
  Segment part 62.
           ENTRY                   ADDRESS         REF BY
           =====                   =======         ======
           dInputSet9v             0011219D        cInputSetupCustomSensor (c_input)
                                                   cInputSetupType (c_input)
    -------------------------------------------------------------------------
CODE
  Relative segment, address: 001121A8 - 001121AF (0x8 bytes), align: 2
  Segment part 63.            Intra module refs:   dInputSet9v
                                                   dInputSetActive
           LOCAL                   ADDRESS         
           =====                   =======         
           ?Subroutine32           001121A9 
    -------------------------------------------------------------------------
CODE
  Relative segment, address: 001121B0 - 001121BD (0xe bytes), align: 2
  Segment part 65.
           ENTRY                   ADDRESS         REF BY
           =====                   =======         ======
           dInputSetInactive       001121B1        cInputSetupCustomSensor (c_input)
                                                   cInputSetupType (c_input)
    -------------------------------------------------------------------------
CODE
  Relative segment, address: 001121C0 - 001121C3 (0x4 bytes), align: 2
  Segment part 66.            Intra module refs:   dInputSet9v
                                                   dInputSetActive
                                                   dInputSetInactive
    -------------------------------------------------------------------------
CODE
  Relative segment, address: 001121C4 - 001121FD (0x3a bytes), align: 2
  Segment part 68.
           ENTRY                   ADDRESS         REF BY
           =====                   =======         ======
           dInputGetColor          001121C5        cInputCalcSensorValues (c_input)
               stack 1 = 00000000 ( 0000000C )
    -------------------------------------------------------------------------
CODE
  Relative segment, address: 00112200 - 00112203 (0x4 bytes), align: 2
  Segment part 69.            Intra module refs:   dInputGetAllColors
                                                   dInputGetColor
                                                   dInputInit
    -------------------------------------------------------------------------
CODE
  Relative segment, address: 00112204 - 00112207 (0x4 bytes), align: 2
  Segment part 70.            Intra module refs:   dInputGetAllColors
                                                   dInputGetColor
                                                   dInputRead0
                                                   dInputRead1
    -------------------------------------------------------------------------
CODE
  Relative segment, address: 00112208 - 0011220B (0x4 bytes), align: 2
  Segment part 71.            Intra module refs:   dInputClearDigi0
                                                   dInputGetColor
                                                   dInputInit
                                                   dInputRead0
                                                   dInputSetDigi0
                                                   dInputSetDirInDigi0
    -------------------------------------------------------------------------
CODE
  Relative segment, address: 0011220C - 0011227D (0x72 bytes), align: 2
  Segment part 73.
           ENTRY                   ADDRESS         REF BY
           =====                   =======         ======
           dInputColorTx           0011220D        cInputInitColorSensor (c_input)
               stack 1 = 00000000 ( 00000020 )
    -------------------------------------------------------------------------
CODE
  Relative segment, address: 00112280 - 00112283 (0x4 bytes), align: 2
  Segment part 74.            Intra module refs:   ?Subroutine30
                                                   dInputColorTx
                                                   dInputGetAllColors
    -------------------------------------------------------------------------
CODE
  Relative segment, address: 00112284 - 001122F7 (0x74 bytes), align: 2
  Segment part 76.
           ENTRY                   ADDRESS         REF BY
           =====                   =======         ======
           dInputReadCal           00112285        cInputInitColorSensor (c_input)
               stack 1 = 00000000 ( 00000018 )
    -------------------------------------------------------------------------
CODE
  Relative segment, address: 001122F8 - 001122FD (0x6 bytes), align: 2
  Segment part 77.            Intra module refs:   dInputGetAllColors
                                                   dInputReadCal
           LOCAL                   ADDRESS         
           =====                   =======         
           ?Subroutine33           001122F9 
    -------------------------------------------------------------------------
CODE
  Relative segment, address: 00112300 - 00112303 (0x4 bytes), align: 2
  Segment part 78.            Intra module refs:   dInputColorTx
                                                   dInputGetAllColors
                                                   dInputReadCal
                                                   dInputSetDigi0
                                                   dInputSetDigi1
    -------------------------------------------------------------------------
CODE
  Relative segment, address: 00112304 - 00112307 (0x4 bytes), align: 2
  Segment part 79.            Intra module refs:   ?Subroutine30
                                                   dInputColorTx
                                                   dInputGetAllColors
                                                   dInputReadCal
    -------------------------------------------------------------------------
CODE
  Relative segment, address: 00112308 - 0011230B (0x4 bytes), align: 2
  Segment part 80.            Intra module refs:   dInputReadCal
    -------------------------------------------------------------------------
CODE
  Relative segment, address: 0011230C - 0011230F (0x4 bytes), align: 2
  Segment part 81.            Intra module refs:   dInputReadCal
    -------------------------------------------------------------------------
CODE
  Relative segment, address: 00112310 - 0011232F (0x20 bytes), align: 2
  Segment part 83.
           ENTRY                   ADDRESS         REF BY
           =====                   =======         ======
           dInputCheckColorStatus
                                   00112311        cInputCalcSensorValues (c_input)
                                                   cInputInitColorSensor (c_input)
               stack 1 = 00000000 ( 00000004 )
    -------------------------------------------------------------------------
CODE
  Relative segment, address: 00112330 - 00112333 (0x4 bytes), align: 2
  Segment part 84.            Intra module refs:   dInputCheckColorStatus
    -------------------------------------------------------------------------
CODE
  Relative segment, address: 00112334 - 00112337 (0x4 bytes), align: 2
  Segment part 85.            Intra module refs:   dInputCheckColorStatus
                                                   dInputGetColor
    -------------------------------------------------------------------------
CODE
  Relative segment, address: 00112338 - 00112343 (0xc bytes), align: 2
  Segment part 87.
           ENTRY                   ADDRESS         REF BY
           =====                   =======         ======
           dInputClearColor100msTimer
                                   00112339        cInputInitColorSensor (c_input)
    -------------------------------------------------------------------------
CODE
  Relative segment, address: 00112344 - 00112363 (0x20 bytes), align: 2
  Segment part 89.
           ENTRY                   ADDRESS         REF BY
           =====                   =======         ======
           dInputChkColor100msTimer
                                   00112345        cInputInitColorSensor (c_input)
               stack 1 = 00000000 ( 00000004 )
    -------------------------------------------------------------------------
CODE
  Relative segment, address: 00112364 - 00112367 (0x4 bytes), align: 2
  Segment part 90.            Intra module refs:   dInputChkColor100msTimer
                                                   dInputClearColor100msTimer
    -------------------------------------------------------------------------
CODE
  Relative segment, address: 00112368 - 0011236B (0x4 bytes), align: 2
  Segment part 91.            Intra module refs:   dInputChkColor100msTimer
                                                   dInputClearColor100msTimer
    -------------------------------------------------------------------------
CODE
  Relative segment, address: 0011236C - 0011239D (0x32 bytes), align: 2
  Segment part 93.
           ENTRY                   ADDRESS         REF BY
           =====                   =======         ======
           dInputExit              0011236D        cInputExit (c_input)
               stack 1 = 00000000 ( 0000000C )
    -------------------------------------------------------------------------
CODE
  Relative segment, address: 001123A0 - 001123A3 (0x4 bytes), align: 2
  Segment part 94.            Intra module refs:   dInputExit
    -------------------------------------------------------------------------
CODE
  Relative segment, address: 001123A4 - 001123A7 (0x4 bytes), align: 2
  Segment part 95.            Intra module refs:   dInputColorTx
                                                   dInputExit
                                                   dInputReadCal
    -------------------------------------------------------------------------
CODE
  Relative segment, address: 001123A8 - 001123AB (0x4 bytes), align: 2
  Segment part 96.            Intra module refs:   dInputColorTx
                                                   dInputExit
                                                   dInputReadCal
    -------------------------------------------------------------------------
CODE
  Relative segment, address: 001123AC - 001123AF (0x4 bytes), align: 2
  Segment part 97.            Intra module refs:   dInputExit
    -------------------------------------------------------------------------
DATA_ID
  Relative segment, address: 00119C98 - 00119CA7 (0x10 bytes), align: 2
  Segment part 5.             Intra module refs:   ADValRegs

    *************************************************************************

  FILE NAME : C:\Documents and Settings\Lane Kolbly\My Documents\GitHub\blindnxt\AT91SAM7S256\SAM7S256\Object\d_ioctrl.r79
  PROGRAM MODULE, NAME : d_ioctrl

  SEGMENTS IN THE MODULE
  ======================
DATA_Z
  Relative segment, address: 0000AD8C - 0000ADD7 (0x4c bytes), align: 2
  Segment part 3.             Intra module refs:   I2cHandler
                                                   Segment part 29
           LOCAL                   ADDRESS         
           =====                   =======         
           Cnt                     0000AD8C 
           I2CTimerValue           0000ADC4 
           I2cInBuffer             0000ADC8 
           I2cLastStatus           0000AD8E 
           I2cOutBuffer            0000AD90 
           I2cStatus               0000AD8D 
           RxSum                   0000AD8F 
           pIrq                    0000ADC0 
    -------------------------------------------------------------------------
CODE_I
  Relative segment, address: 0000BAC8 - 0000BB43 (0x7c bytes), align: 2
  Segment part 5.             Intra module refs:   Segment part 43
           ENTRY                   ADDRESS         REF BY
           =====                   =======         ======
           I2cHandler              0000BAC9 
               stack 1 = 00000000 ( 00000010 )
    -------------------------------------------------------------------------
CODE
  Relative segment, address: 001123B0 - 001124C7 (0x118 bytes), align: 2
  Segment part 7.
           ENTRY                   ADDRESS         REF BY
           =====                   =======         ======
           dIOCtrlInit             001123B1        cIOCtrlInit (c_ioctrl)
               stack 1 = 00000000 ( 00000014 )
    -------------------------------------------------------------------------
CODE
  Relative segment, address: 001124C8 - 001124CB (0x4 bytes), align: 2
  Segment part 8.             Intra module refs:   dIOCtrlInit
    -------------------------------------------------------------------------
CODE
  Relative segment, address: 001124CC - 001124CF (0x4 bytes), align: 2
  Segment part 9.             Intra module refs:   dIOCtrlInit
    -------------------------------------------------------------------------
CODE
  Relative segment, address: 001124D0 - 001124D3 (0x4 bytes), align: 2
  Segment part 10.            Intra module refs:   dIOCtrlInit
    -------------------------------------------------------------------------
CODE
  Relative segment, address: 001124D4 - 001124D7 (0x4 bytes), align: 2
  Segment part 11.            Intra module refs:   dIOCtrlInit
    -------------------------------------------------------------------------
CODE
  Relative segment, address: 001124D8 - 001124DB (0x4 bytes), align: 2
  Segment part 12.            Intra module refs:   dIOCtrlInit
    -------------------------------------------------------------------------
CODE
  Relative segment, address: 001124DC - 001124DF (0x4 bytes), align: 2
  Segment part 13.            Intra module refs:   dIOCtrlInit
    -------------------------------------------------------------------------
CODE
  Relative segment, address: 001124E0 - 001124E3 (0x4 bytes), align: 2
  Segment part 14.            Intra module refs:   dIOCtrlInit
    -------------------------------------------------------------------------
CODE
  Relative segment, address: 001124E4 - 001124E7 (0x4 bytes), align: 2
  Segment part 15.            Intra module refs:   dIOCtrlInit
    -------------------------------------------------------------------------
CODE
  Relative segment, address: 001124E8 - 001124EB (0x4 bytes), align: 2
  Segment part 16.            Intra module refs:   dIOCtrlInit
    -------------------------------------------------------------------------
CODE
  Relative segment, address: 001124EC - 001124EF (0x4 bytes), align: 2
  Segment part 17.            Intra module refs:   dIOCtrlInit
    -------------------------------------------------------------------------
CODE
  Relative segment, address: 001124F0 - 001124F3 (0x4 bytes), align: 2
  Segment part 18.            Intra module refs:   dIOCtrlInit
    -------------------------------------------------------------------------
CODE
  Relative segment, address: 001124F4 - 001124F7 (0x4 bytes), align: 2
  Segment part 19.            Intra module refs:   dIOCtrlInit
    -------------------------------------------------------------------------
CODE
  Relative segment, address: 001124F8 - 001124FB (0x4 bytes), align: 2
  Segment part 20.            Intra module refs:   dIOCtrlInit
    -------------------------------------------------------------------------
CODE
  Relative segment, address: 001124FC - 001124FF (0x4 bytes), align: 2
  Segment part 21.            Intra module refs:   dIOCtrlInit
    -------------------------------------------------------------------------
CODE
  Relative segment, address: 00112500 - 00112505 (0x6 bytes), align: 2
  Segment part 23.
           ENTRY                   ADDRESS         REF BY
           =====                   =======         ======
           dIOCtrlSetPower         00112501        cIOCtrlCtrl (c_ioctrl)
                                                   cIOCtrlInit (c_ioctrl)
    -------------------------------------------------------------------------
CODE
  Relative segment, address: 00112508 - 00112513 (0xc bytes), align: 2
  Segment part 25.
           ENTRY                   ADDRESS         REF BY
           =====                   =======         ======
           dIOCtrlSetPwm           00112509        cIOCtrlCtrl (c_ioctrl)
    -------------------------------------------------------------------------
CODE
  Relative segment, address: 00112514 - 001126F7 (0x1e4 bytes), align: 2
  Segment part 27.
           ENTRY                   ADDRESS         REF BY
           =====                   =======         ======
           dIOCtrlTransfer         00112515        cIOCtrlCtrl (c_ioctrl)
               stack 1 = 00000000 ( 00000014 )
    -------------------------------------------------------------------------
CODE
  Relative segment, address: 001126F8 - 0011270F (0x18 bytes), align: 2
  Segment part 28.            Intra module refs:   dIOCtrlInit
                                                   dIOCtrlTransfer
           LOCAL                   ADDRESS         
           =====                   =======         
           ?Subroutine6            001126F9 
    -------------------------------------------------------------------------
CODE
  Relative segment, address: 00112710 - 00112713 (0x4 bytes), align: 2
  Segment part 29.            Intra module refs:   dIOCtrlInit
                                                   dIOCtrlTransfer
    -------------------------------------------------------------------------
CODE
  Relative segment, address: 00112714 - 00112717 (0x4 bytes), align: 2
  Segment part 30.            Intra module refs:   dIOCtrlInit
                                                   dIOCtrlTransfer
    -------------------------------------------------------------------------
CODE
  Relative segment, address: 00112718 - 0011271B (0x4 bytes), align: 2
  Segment part 31.            Intra module refs:   dIOCtrlTransfer
    -------------------------------------------------------------------------
CODE
  Relative segment, address: 0011271C - 0011271F (0x4 bytes), align: 2
  Segment part 32.            Intra module refs:   dIOCtrlTransfer
    -------------------------------------------------------------------------
CODE
  Relative segment, address: 00112720 - 00112723 (0x4 bytes), align: 2
  Segment part 33.            Intra module refs:   dIOCtrlTransfer
    -------------------------------------------------------------------------
CODE
  Relative segment, address: 00112724 - 00112727 (0x4 bytes), align: 2
  Segment part 34.            Intra module refs:   dIOCtrlTransfer
    -------------------------------------------------------------------------
CODE
  Relative segment, address: 00112728 - 0011272B (0x4 bytes), align: 2
  Segment part 35.            Intra module refs:   dIOCtrlTransfer
    -------------------------------------------------------------------------
CODE
  Relative segment, address: 0011272C - 0011272F (0x4 bytes), align: 2
  Segment part 36.            Intra module refs:   dIOCtrlTransfer
    -------------------------------------------------------------------------
CODE
  Relative segment, address: 00112730 - 00112733 (0x4 bytes), align: 2
  Segment part 37.            Intra module refs:   dIOCtrlInit
                                                   dIOCtrlTransfer
    -------------------------------------------------------------------------
CODE
  Relative segment, address: 00112734 - 00112737 (0x4 bytes), align: 2
  Segment part 38.            Intra module refs:   dIOCtrlInit
                                                   dIOCtrlTransfer
    -------------------------------------------------------------------------
CODE
  Relative segment, address: 00112738 - 0011273B (0x4 bytes), align: 2
  Segment part 39.            Intra module refs:   dIOCtrlInit
                                                   dIOCtrlTransfer
    -------------------------------------------------------------------------
CODE
  Relative segment, address: 0011273C - 0011273F (0x4 bytes), align: 2
  Segment part 40.            Intra module refs:   dIOCtrlInit
                                                   dIOCtrlSetPower
                                                   dIOCtrlTransfer
    -------------------------------------------------------------------------
CODE
  Relative segment, address: 00112740 - 00112743 (0x4 bytes), align: 2
  Segment part 41.            Intra module refs:   dIOCtrlInit
                                                   dIOCtrlTransfer
    -------------------------------------------------------------------------
CODE
  Relative segment, address: 00112744 - 00112747 (0x4 bytes), align: 2
  Segment part 42.            Intra module refs:   dIOCtrlInit
                                                   dIOCtrlTransfer
    -------------------------------------------------------------------------
CODE
  Relative segment, address: 00112748 - 0011274B (0x4 bytes), align: 2
  Segment part 43.            Intra module refs:   dIOCtrlInit
                                                   dIOCtrlTransfer
    -------------------------------------------------------------------------
CODE
  Relative segment, address: 0011274C - 0011274F (0x4 bytes), align: 2
  Segment part 44.            Intra module refs:   dIOCtrlInit
                                                   dIOCtrlTransfer
    -------------------------------------------------------------------------
CODE
  Relative segment, address: 00112750 - 00112753 (0x4 bytes), align: 2
  Segment part 45.            Intra module refs:   dIOCtrlInit
                                                   dIOCtrlTransfer
    -------------------------------------------------------------------------
CODE
  Relative segment, address: 00112754 - 00112757 (0x4 bytes), align: 2
  Segment part 46.            Intra module refs:   dIOCtrlInit
                                                   dIOCtrlTransfer
    -------------------------------------------------------------------------
CODE
  Relative segment, address: 00112758 - 0011275B (0x4 bytes), align: 2
  Segment part 47.            Intra module refs:   dIOCtrlInit
                                                   dIOCtrlTransfer
    -------------------------------------------------------------------------
CODE
  Relative segment, address: 0011275C - 0011275F (0x4 bytes), align: 2
  Segment part 48.            Intra module refs:   dIOCtrlInit
                                                   dIOCtrlTransfer
    -------------------------------------------------------------------------
CODE
  Relative segment, address: 00112760 - 00112763 (0x4 bytes), align: 2
  Segment part 49.            Intra module refs:   dIOCtrlInit
                                                   dIOCtrlTransfer
    -------------------------------------------------------------------------
CODE
  Relative segment, address: 00112764 - 00112767 (0x4 bytes), align: 2
  Segment part 50.            Intra module refs:   dIOCtrlInit
                                                   dIOCtrlTransfer
    -------------------------------------------------------------------------
CODE
  Relative segment, address: 00112768 - 0011276B (0x4 bytes), align: 2
  Segment part 51.            Intra module refs:   dIOCtrlTransfer
    -------------------------------------------------------------------------
CODE
  Relative segment, address: 0011276C - 0011279F (0x34 bytes), align: 2
  Segment part 53.
           ENTRY                   ADDRESS         REF BY
           =====                   =======         ======
           dIOCtrlExit             0011276D        cIOCtrlExit (c_ioctrl)
    -------------------------------------------------------------------------
CODE
  Relative segment, address: 001127A0 - 001127A3 (0x4 bytes), align: 2
  Segment part 54.            Intra module refs:   dIOCtrlExit
                                                   dIOCtrlTransfer
    -------------------------------------------------------------------------
CODE
  Relative segment, address: 001127A4 - 001127A7 (0x4 bytes), align: 2
  Segment part 55.            Intra module refs:   dIOCtrlExit
                                                   dIOCtrlTransfer
    -------------------------------------------------------------------------
CODE
  Relative segment, address: 001127A8 - 001127AB (0x4 bytes), align: 2
  Segment part 56.            Intra module refs:   dIOCtrlExit
    -------------------------------------------------------------------------
CODE
  Relative segment, address: 001127AC - 001127AF (0x4 bytes), align: 2
  Segment part 57.            Intra module refs:   dIOCtrlExit
                                                   dIOCtrlTransfer
    -------------------------------------------------------------------------
CODE
  Relative segment, address: 001127B0 - 001127B3 (0x4 bytes), align: 2
  Segment part 58.            Intra module refs:   dIOCtrlExit
                                                   dIOCtrlTransfer
    -------------------------------------------------------------------------
CODE
  Relative segment, address: 001127B4 - 001127B7 (0x4 bytes), align: 2
  Segment part 59.            Intra module refs:   dIOCtrlExit
                                                   dIOCtrlTransfer
    -------------------------------------------------------------------------
CODE
  Relative segment, address: 001127B8 - 001127BB (0x4 bytes), align: 2
  Segment part 60.            Intra module refs:   dIOCtrlExit
                                                   dIOCtrlTransfer
    -------------------------------------------------------------------------
CODE
  Relative segment, address: 001127BC - 001127BF (0x4 bytes), align: 2
  Segment part 61.            Intra module refs:   dIOCtrlExit
                                                   dIOCtrlTransfer
    -------------------------------------------------------------------------
DATA_C
  Relative segment, address: 0012037C - 001203AB (0x30 bytes), align: 2
  Segment part 2.             Intra module refs:   Segment part 48
    -------------------------------------------------------------------------
CODE_ID
  Relative segment, address: 00120694 - 0012070F (0x7c bytes), align: 2
  Segment part 67.            Intra module refs:   I2cHandler

    *************************************************************************

  FILE NAME : C:\Documents and Settings\Lane Kolbly\My Documents\GitHub\blindnxt\AT91SAM7S256\SAM7S256\Object\d_loader.r79
  PROGRAM MODULE, NAME : d_loader

  SEGMENTS IN THE MODULE
  ======================
CODE_I
  Relative segment, address: 0000BB44 - 0000BB55 (0x12 bytes), align: 2
  Segment part 10.            Intra module refs:   ?Subroutine42
           ENTRY                   ADDRESS         REF BY
           =====                   =======         ======
           AT91F_Flash_Ready       0000BB45 
               stack 1 = 00000000 ( 00000004 )
    -------------------------------------------------------------------------
CODE_I
  Relative segment, address: 0000BB58 - 0000BB8B (0x34 bytes), align: 2
  Segment part 12.            Intra module refs:   dLoaderCloseHandle
                                                   dLoaderCropDatafile
                                                   dLoaderFlashFileHeader
                                                   dLoaderRenameFile
                                                   dLoaderWriteData
                                                   dLoaderWriteFilePtrTable
           ENTRY                   ADDRESS         REF BY
           =====                   =======         ======
           dLoaderWritePage        0000BB59 
               stack 1 = 00000000 ( 0000000C )
    -------------------------------------------------------------------------
CODE_I
  Relative segment, address: 0000BB8C - 0000BBB3 (0x28 bytes), align: 2
  Segment part 14.            Intra module refs:   dLoaderDeleteAllFiles
           ENTRY                   ADDRESS         REF BY
           =====                   =======         ======
           dLoaderErasePage        0000BB8D 
               stack 1 = 00000000 ( 0000000C )
    -------------------------------------------------------------------------
CODE_I
  Relative segment, address: 0000BBB4 - 0000BBD9 (0x26 bytes), align: 2
  Segment part 15.            Intra module refs:   dLoaderErasePage
                                                   dLoaderWritePage
           LOCAL                   ADDRESS         
           =====                   =======         
           ?Subroutine42           0000BBB5 
    -------------------------------------------------------------------------
CODE_I
  Relative segment, address: 0000BBDC - 0000BBDF (0x4 bytes), align: 2
  Segment part 16.            Intra module refs:   dLoaderErasePage
                                                   dLoaderWritePage
    -------------------------------------------------------------------------
CODE_I
  Relative segment, address: 0000BBE0 - 0000BBE3 (0x4 bytes), align: 2
  Segment part 17.            Intra module refs:   ?Subroutine42
    -------------------------------------------------------------------------
CODE_I
  Relative segment, address: 0000BBE4 - 0000BBE7 (0x4 bytes), align: 2
  Segment part 18.            Intra module refs:   ?Subroutine42
    -------------------------------------------------------------------------
DATA_Z
  Relative segment, address: 0000ADD8 - 0000B4E7 (0x710 bytes), align: 2
  Segment part 5.             Intra module refs:   Segment part 110
                                                   Segment part 115
                                                   Segment part 137
                                                   Segment part 21
                                                   Segment part 33
                                                   Segment part 56
                                                   Segment part 60
                                                   Segment part 82
                                                   Segment part 87
           LOCAL                   ADDRESS         
           =====                   =======         
           HandleTable             0000B1E8 
           WriteBuffer             0000ADD8 
    -------------------------------------------------------------------------
DATA_Z
  Relative segment, address: 0000B4E8 - 0000B567 (0x80 bytes), align: 2
  Segment part 6.             Intra module refs:   Segment part 41
                                                   Segment part 88
                                                   Segment part 91
           LOCAL                   ADDRESS         
           =====                   =======         
           SectorTable             0000B4E8 
    -------------------------------------------------------------------------
DATA_Z
  Relative segment, address: 0000B568 - 0000B947 (0x3e0 bytes), align: 2
  Segment part 7.             Intra module refs:   ?Subroutine45
           LOCAL                   ADDRESS         
           =====                   =======         
           Header                  0000B568 
    -------------------------------------------------------------------------
DATA_Z
  Relative segment, address: 0000B948 - 0000B94F (0x8 bytes), align: 2
  Segment part 8.             Intra module refs:   Segment part 126
                                                   Segment part 45
                                                   Segment part 46
                                                   Segment part 76
           LOCAL                   ADDRESS         
           =====                   =======         
           FreeSectors             0000B948 
           FreeUserFlash           0000B94C 
    -------------------------------------------------------------------------
CODE
  Relative segment, address: 001127C0 - 0011280B (0x4c bytes), align: 2
  Segment part 20.
           ENTRY                   ADDRESS         REF BY
           =====                   =======         ======
           dLoaderInit             001127C1        cLoaderInit (c_loader)
               stack 1 = 00000000 ( 0000000C )
    -------------------------------------------------------------------------
CODE
  Relative segment, address: 0011280C - 0011280F (0x4 bytes), align: 2
  Segment part 21.            Intra module refs:   dLoaderInit
    -------------------------------------------------------------------------
CODE
  Relative segment, address: 00112810 - 00112865 (0x56 bytes), align: 2
  Segment part 23.            Intra module refs:   dLoaderCreateFileHeader
           ENTRY                   ADDRESS         REF BY
           =====                   =======         ======
           dLoaderAvailFileNo      00112811 
               stack 1 = 00000000 ( 00000010 )
    -------------------------------------------------------------------------
CODE
  Relative segment, address: 00112868 - 0011286B (0x4 bytes), align: 2
  Segment part 24.            Intra module refs:   dLoaderAvailFileNo
                                                   dLoaderInit
    -------------------------------------------------------------------------
CODE
  Relative segment, address: 0011286C - 00112897 (0x2c bytes), align: 2
  Segment part 26.            Intra module refs:   dLoaderDeleteAllFiles
                                                   dLoaderDeleteFilePtr
                                                   dLoaderInsertPtrTable
           ENTRY                   ADDRESS         REF BY
           =====                   =======         ======
           dLoaderWriteFilePtrTable
                                   0011286D 
               stack 1 = 00000000 ( 0000000C )
    -------------------------------------------------------------------------
CODE
  Relative segment, address: 00112898 - 0011289D (0x6 bytes), align: 2
  Segment part 27.            Intra module refs:   dLoaderCpyToLower
                                                   dLoaderInit
                                                   dLoaderWriteFilePtrTable
           LOCAL                   ADDRESS         
           =====                   =======         
           ?Subroutine43           00112899 
    -------------------------------------------------------------------------
CODE
  Relative segment, address: 001128A0 - 0011291B (0x7c bytes), align: 2
  Segment part 29.            Intra module refs:   dLoaderCloseHandle
                                                   dLoaderCreateFileHeader
           ENTRY                   ADDRESS         REF BY
           =====                   =======         ======
           dLoaderInsertPtrTable   001128A1 
               stack 1 = 00000000 ( 00000210 )
    -------------------------------------------------------------------------
CODE
  Relative segment, address: 0011291C - 00112921 (0x6 bytes), align: 2
  Segment part 30.            Intra module refs:   dLoaderAvailFileNo
                                                   dLoaderCheckDownload
                                                   dLoaderInsertPtrTable
           LOCAL                   ADDRESS         
           =====                   =======         
           ?Subroutine44           0011291D 
    -------------------------------------------------------------------------
CODE
  Relative segment, address: 00112924 - 001129FB (0xd8 bytes), align: 2
  Segment part 32.            Intra module refs:   dLoaderDelete
           ENTRY                   ADDRESS         REF BY
           =====                   =======         ======
           dLoaderDeleteFilePtr    00112925 
               stack 1 = 00000000 ( 0000021C )
    -------------------------------------------------------------------------
CODE
  Relative segment, address: 001129FC - 001129FF (0x4 bytes), align: 2
  Segment part 33.            Intra module refs:   dLoaderAvailFileNo
                                                   dLoaderDeleteFilePtr
                                                   dLoaderInsertPtrTable
    -------------------------------------------------------------------------
CODE
  Relative segment, address: 00112A00 - 00112A03 (0x4 bytes), align: 2
  Segment part 34.            Intra module refs:   dLoaderDeleteFilePtr
                                                   dLoaderInsertPtrTable
    -------------------------------------------------------------------------
CODE
  Relative segment, address: 00112A04 - 00112A5B (0x58 bytes), align: 2
  Segment part 36.            Intra module refs:   dLoaderCheckVersion
           ENTRY                   ADDRESS         REF BY
           =====                   =======         ======
           dLoaderDeleteAllFiles   00112A05        cLoaderFileRq (c_loader)
               stack 1 = 00000000 ( 00000208 )
    -------------------------------------------------------------------------
CODE
  Relative segment, address: 00112A5C - 00112B5F (0x104 bytes), align: 2
  Segment part 38.            Intra module refs:   dLoaderCloseHandle
                                                   dLoaderCropDatafile
                                                   dLoaderDeleteAllFiles
                                                   dLoaderDeleteFilePtr
                                                   dLoaderInit
           ENTRY                   ADDRESS         REF BY
           =====                   =======         ======
           dLoaderUpdateSectorTable
                                   00112A5D 
               stack 1 = 00000000 ( 00000018 )
    -------------------------------------------------------------------------
CODE
  Relative segment, address: 00112B60 - 00112B63 (0x4 bytes), align: 2
  Segment part 39.            Intra module refs:   dLoaderUpdateSectorTable
    -------------------------------------------------------------------------
CODE
  Relative segment, address: 00112B64 - 00112B67 (0x4 bytes), align: 2
  Segment part 40.            Intra module refs:   dLoaderAvailFileNo
                                                   dLoaderDeleteFilePtr
                                                   dLoaderInsertPtrTable
                                                   dLoaderUpdateSectorTable
                                                   dLoaderWriteFilePtrTable
    -------------------------------------------------------------------------
CODE
  Relative segment, address: 00112B68 - 00112B6B (0x4 bytes), align: 2
  Segment part 41.            Intra module refs:   dLoaderUpdateSectorTable
    -------------------------------------------------------------------------
CODE
  Relative segment, address: 00112B6C - 00112CDB (0x170 bytes), align: 2
  Segment part 43.
           ENTRY                   ADDRESS         REF BY
           =====                   =======         ======
           dLoaderCreateFileHeader
                                   00112B6D        cLoaderFileRq (c_loader)
               stack 1 = 00000000 ( 00000040 )
    -------------------------------------------------------------------------
CODE
  Relative segment, address: 00112CDC - 00112D0B (0x30 bytes), align: 2
  Segment part 44.            Intra module refs:   dLoaderAllocateHeader
                                                   dLoaderAllocateWriteBuffer
                                                   dLoaderCheckFiles
                                                   dLoaderCheckName
                                                   dLoaderCreateFileHeader
                                                   dLoaderCropDatafile
                                                   dLoaderDeleteFilePtr
                                                   dLoaderFindNext
                                                   dLoaderOpenAppend
           LOCAL                   ADDRESS         
           =====                   =======         
           ?Subroutine45           00112CDD 
    -------------------------------------------------------------------------
CODE
  Relative segment, address: 00112D0C - 00112D0F (0x4 bytes), align: 2
  Segment part 45.            Intra module refs:   dLoaderCreateFileHeader
    -------------------------------------------------------------------------
CODE
  Relative segment, address: 00112D10 - 00112D13 (0x4 bytes), align: 2
  Segment part 46.            Intra module refs:   dLoaderCreateFileHeader
                                                   dLoaderDeleteAllFiles
                                                   dLoaderUpdateSectorTable
    -------------------------------------------------------------------------
CODE
  Relative segment, address: 00112D14 - 00112E77 (0x164 bytes), align: 2
  Segment part 48.
           ENTRY                   ADDRESS         REF BY
           =====                   =======         ======
           dLoaderWriteData        00112D15        cLoaderFileRq (c_loader)
               stack 1 = 00000000 ( 00000020 )
    -------------------------------------------------------------------------
CODE
  Relative segment, address: 00112E78 - 00112E7B (0x4 bytes), align: 2
  Segment part 49.            Intra module refs:   dLoaderWriteData
    -------------------------------------------------------------------------
CODE
  Relative segment, address: 00112E7C - 00112EAB (0x30 bytes), align: 2
  Segment part 51.            Intra module refs:   dLoaderFind
           ENTRY                   ADDRESS         REF BY
           =====                   =======         ======
           dLoaderGetFreeHandle    00112E7D 
               stack 1 = 00000000 ( 00000008 )
    -------------------------------------------------------------------------
CODE
  Relative segment, address: 00112EAC - 00112EE7 (0x3c bytes), align: 2
  Segment part 53.            Intra module refs:   dLoaderRead
                                                   dLoaderSetFilePointer
                                                   dLoaderWriteData
           ENTRY                   ADDRESS         REF BY
           =====                   =======         ======
           dLoaderGetNextSectorPtr
                                   00112EAD 
               stack 1 = 00000000 ( 00000008 )
    -------------------------------------------------------------------------
CODE
  Relative segment, address: 00112EE8 - 00112EF3 (0xc bytes), align: 2
  Segment part 54.            Intra module refs:   dLoaderDelete
                                                   dLoaderGetFilePtr
                                                   dLoaderGetFreeHandle
                                                   dLoaderGetNextSectorPtr
                                                   dLoaderOpenRead
                                                   dLoaderReturnFreeFlash
           LOCAL                   ADDRESS         
           =====                   =======         
           ?Subroutine47           00112EE9 
    -------------------------------------------------------------------------
CODE
  Relative segment, address: 00112EF4 - 00112EF7 (0x4 bytes), align: 2
  Segment part 55.            Intra module refs:   dLoaderCreateFileHeader
                                                   dLoaderGetNextSectorPtr
    -------------------------------------------------------------------------
CODE
  Relative segment, address: 00112EF8 - 00112EFB (0x4 bytes), align: 2
  Segment part 56.            Intra module refs:   dLoaderCreateFileHeader
                                                   dLoaderGetFreeHandle
                                                   dLoaderGetNextSectorPtr
    -------------------------------------------------------------------------
CODE
  Relative segment, address: 00112EFC - 00112EFF (0x4 bytes), align: 2
  Segment part 57.            Intra module refs:   dLoaderGetNextSectorPtr
    -------------------------------------------------------------------------
CODE
  Relative segment, address: 00112F00 - 00113009 (0x10a bytes), align: 2
  Segment part 59.            Intra module refs:   dLoaderCropDatafile
                                                   dLoaderDelete
                                                   dLoaderDeleteAllFiles
           ENTRY                   ADDRESS         REF BY
           =====                   =======         ======
           dLoaderCloseHandle      00112F01        cLoaderFileRq (c_loader)
               stack 1 = 00000000 ( 00000018 )
    -------------------------------------------------------------------------
CODE
  Relative segment, address: 0011300C - 0011300F (0x4 bytes), align: 2
  Segment part 60.            Intra module refs:   dLoaderCloseHandle
                                                   dLoaderWriteData
    -------------------------------------------------------------------------
CODE
  Relative segment, address: 00113010 - 00113013 (0x4 bytes), align: 2
  Segment part 61.            Intra module refs:   dLoaderCloseHandle
                                                   dLoaderGetFreeHandle
    -------------------------------------------------------------------------
CODE
  Relative segment, address: 00113014 - 0011306F (0x5c bytes), align: 2
  Segment part 63.
           ENTRY                   ADDRESS         REF BY
           =====                   =======         ======
           dLoaderOpenRead         00113015        cLoaderFileRq (c_loader)
               stack 1 = 00000000 ( 00000024 )
    -------------------------------------------------------------------------
CODE
  Relative segment, address: 00113070 - 001130EF (0x80 bytes), align: 2
  Segment part 65.
           ENTRY                   ADDRESS         REF BY
           =====                   =======         ======
           dLoaderRead             00113071        cLoaderFileRq (c_loader)
               stack 1 = 00000000 ( 0000001C )
    -------------------------------------------------------------------------
CODE
  Relative segment, address: 001130F0 - 00113123 (0x34 bytes), align: 2
  Segment part 67.
           ENTRY                   ADDRESS         REF BY
           =====                   =======         ======
           dLoaderDelete           001130F1        cLoaderFileRq (c_loader)
               stack 1 = 00000000 ( 00000028 )
    -------------------------------------------------------------------------
CODE
  Relative segment, address: 00113124 - 00113183 (0x60 bytes), align: 2
  Segment part 69.            Intra module refs:   dLoaderCreateFileHeader
                                                   dLoaderDelete
                                                   dLoaderGetFilePtr
                                                   dLoaderOpenAppend
                                                   dLoaderOpenRead
           ENTRY                   ADDRESS         REF BY
           =====                   =======         ======
           dLoaderFind             00113125        cLoaderFileRq (c_loader)
               stack 1 = 00000000 ( 0000001C )
    -------------------------------------------------------------------------
CODE
  Relative segment, address: 00113184 - 0011318F (0xc bytes), align: 2
  Segment part 70.            Intra module refs:   dLoaderFind
                                                   dLoaderFindFirstSector
                                                   dLoaderFlashFileHeader
                                                   dLoaderRead
           LOCAL                   ADDRESS         
           =====                   =======         
           ?Subroutine49           00113185 
    -------------------------------------------------------------------------
CODE
  Relative segment, address: 00113190 - 00113231 (0xa2 bytes), align: 2
  Segment part 72.            Intra module refs:   dLoaderFind
           ENTRY                   ADDRESS         REF BY
           =====                   =======         ======
           dLoaderFindNext         00113191        cLoaderFileRq (c_loader)
               stack 1 = 00000000 ( 00000024 )
    -------------------------------------------------------------------------
CODE
  Relative segment, address: 00113234 - 00113237 (0x4 bytes), align: 2
  Segment part 73.            Intra module refs:   dLoaderFind
                                                   dLoaderFindNext
    -------------------------------------------------------------------------
CODE
  Relative segment, address: 00113238 - 00113265 (0x2e bytes), align: 2
  Segment part 75.            Intra module refs:   dLoaderDeleteAllFiles
                                                   dLoaderUpdateSectorTable
           ENTRY                   ADDRESS         REF BY
           =====                   =======         ======
           dLoaderReturnFreeFlash
                                   00113239 
               stack 1 = 00000000 ( 00000008 )
    -------------------------------------------------------------------------
CODE
  Relative segment, address: 00113268 - 0011326B (0x4 bytes), align: 2
  Segment part 76.            Intra module refs:   dLoaderReturnFreeFlash
    -------------------------------------------------------------------------
CODE
  Relative segment, address: 0011326C - 001132A1 (0x36 bytes), align: 2
  Segment part 78.            Intra module refs:   dLoaderCreateFileHeader
                                                   dLoaderReturnFreeFlash
           ENTRY                   ADDRESS         REF BY
           =====                   =======         ======
           dLoaderCalcFreeFileSpace
                                   0011326D 
               stack 1 = 00000000 ( 00000008 )
    -------------------------------------------------------------------------
CODE
  Relative segment, address: 001132A4 - 001132A7 (0x4 bytes), align: 2
  Segment part 79.            Intra module refs:   dLoaderCalcFreeFileSpace
                                                   dLoaderFind
    -------------------------------------------------------------------------
CODE
  Relative segment, address: 001132A8 - 001132F1 (0x4a bytes), align: 2
  Segment part 81.
           ENTRY                   ADDRESS         REF BY
           =====                   =======         ======
           dLoaderGetFilePtr       001132A9        cLoaderFileRq (c_loader)
               stack 1 = 00000000 ( 00000020 )
    -------------------------------------------------------------------------
CODE
  Relative segment, address: 001132F4 - 001132F7 (0x4 bytes), align: 2
  Segment part 82.            Intra module refs:   dLoaderFind
                                                   dLoaderFindNext
                                                   dLoaderGetFilePtr
                                                   dLoaderOpenRead
                                                   dLoaderRead
    -------------------------------------------------------------------------
CODE
  Relative segment, address: 001132F8 - 001132FB (0x4 bytes), align: 2
  Segment part 83.            Intra module refs:   dLoaderFindNext
                                                   dLoaderGetFilePtr
                                                   dLoaderOpenRead
    -------------------------------------------------------------------------
CODE
  Relative segment, address: 001132FC - 001134F5 (0x1fa bytes), align: 2
  Segment part 85.            Intra module refs:   dLoaderCreateFileHeader
           ENTRY                   ADDRESS         REF BY
           =====                   =======         ======
           dLoaderAllocateHeader   001132FD 
               stack 1 = 00000000 ( 00000030 )
    -------------------------------------------------------------------------
CODE
  Relative segment, address: 001134F8 - 001134FB (0x4 bytes), align: 2
  Segment part 86.            Intra module refs:   dLoaderAllocateHeader
    -------------------------------------------------------------------------
CODE
  Relative segment, address: 001134FC - 001134FF (0x4 bytes), align: 2
  Segment part 87.            Intra module refs:   dLoaderAllocateHeader
    -------------------------------------------------------------------------
CODE
  Relative segment, address: 00113500 - 00113503 (0x4 bytes), align: 2
  Segment part 88.            Intra module refs:   dLoaderAllocateHeader
                                                   dLoaderReturnFreeFlash
    -------------------------------------------------------------------------
CODE
  Relative segment, address: 00113504 - 0011358F (0x8c bytes), align: 2
  Segment part 90.            Intra module refs:   dLoaderAllocateHeader
           ENTRY                   ADDRESS         REF BY
           =====                   =======         ======
           dLoaderFindFirstSector
                                   00113505 
               stack 1 = 00000000 ( 0000001C )
    -------------------------------------------------------------------------
CODE
  Relative segment, address: 00113590 - 00113593 (0x4 bytes), align: 2
  Segment part 91.            Intra module refs:   dLoaderFindFirstSector
    -------------------------------------------------------------------------
CODE
  Relative segment, address: 00113594 - 0011360F (0x7c bytes), align: 2
  Segment part 93.            Intra module refs:   dLoaderCreateFileHeader
           ENTRY                   ADDRESS         REF BY
           =====                   =======         ======
           dLoaderFlashFileHeader
                                   00113595 
               stack 1 = 00000000 ( 0000001C )
    -------------------------------------------------------------------------
CODE
  Relative segment, address: 00113610 - 00113661 (0x52 bytes), align: 2
  Segment part 98.            Intra module refs:   dLoaderCreateFileHeader
                                                   dLoaderOpenAppend
           ENTRY                   ADDRESS         REF BY
           =====                   =======         ======
           dLoaderAllocateWriteBuffer
                                   00113611 
               stack 1 = 00000000 ( 00000014 )
    -------------------------------------------------------------------------
CODE
  Relative segment, address: 00113664 - 00113667 (0x4 bytes), align: 2
  Segment part 99.            Intra module refs:   dLoaderAllocateWriteBuffer
                                                   dLoaderFlashFileHeader
    -------------------------------------------------------------------------
CODE
  Relative segment, address: 00113668 - 001136B9 (0x52 bytes), align: 2
  Segment part 101.           Intra module refs:   dLoaderDeleteFilePtr
           ENTRY                   ADDRESS         REF BY
           =====                   =======         ======
           dLoaderCheckFiles       00113669        cLoaderFileRq (c_loader)
               stack 1 = 00000000 ( 00000014 )
    -------------------------------------------------------------------------
CODE
  Relative segment, address: 001136BC - 001136D7 (0x1c bytes), align: 2
  Segment part 103.           Intra module refs:   dLoaderCreateFileHeader
                                                   dLoaderFindNext
                                                   dLoaderRenameFile
           ENTRY                   ADDRESS         REF BY
           =====                   =======         ======
           dLoaderCopyFileName     001136BD        cLoaderFindModule (c_loader)
               stack 1 = 00000000 ( 00000008 )
    -------------------------------------------------------------------------
CODE
  Relative segment, address: 001136D8 - 001136DD (0x6 bytes), align: 2
  Segment part 104.           Intra module refs:   dLoaderCopyFileName
                                                   dLoaderDeleteAllFiles
           LOCAL                   ADDRESS         
           =====                   =======         
           ?Subroutine46           001136D9 
    -------------------------------------------------------------------------
CODE
  Relative segment, address: 001136E0 - 001136F5 (0x16 bytes), align: 2
  Segment part 106.           Intra module refs:   dLoaderInit
           ENTRY                   ADDRESS         REF BY
           =====                   =======         ======
           dLoaderCheckVersion     001136E1 
               stack 1 = 00000000 ( 00000004 )
    -------------------------------------------------------------------------
CODE
  Relative segment, address: 001136F8 - 001136FB (0x4 bytes), align: 2
  Segment part 107.           Intra module refs:   dLoaderCheckVersion
    -------------------------------------------------------------------------
CODE
  Relative segment, address: 001136FC - 001137E5 (0xea bytes), align: 2
  Segment part 109.
           ENTRY                   ADDRESS         REF BY
           =====                   =======         ======
           dLoaderOpenAppend       001136FD        cLoaderFileRq (c_loader)
               stack 1 = 00000000 ( 00000038 )
    -------------------------------------------------------------------------
CODE
  Relative segment, address: 001137E8 - 001137EB (0x4 bytes), align: 2
  Segment part 110.           Intra module refs:   dLoaderAllocateWriteBuffer
                                                   dLoaderFlashFileHeader
                                                   dLoaderOpenAppend
    -------------------------------------------------------------------------
CODE
  Relative segment, address: 001137EC - 0011385B (0x70 bytes), align: 2
  Segment part 112.           Intra module refs:   dLoaderOpenAppend
           ENTRY                   ADDRESS         REF BY
           =====                   =======         ======
           dLoaderSetFilePointer   001137ED 
               stack 1 = 00000000 ( 00000018 )
    -------------------------------------------------------------------------
CODE
  Relative segment, address: 0011385C - 00113861 (0x6 bytes), align: 2
  Segment part 113.           Intra module refs:   dLoaderCloseHandle
                                                   dLoaderSetFilePointer
           LOCAL                   ADDRESS         
           =====                   =======         
           ?Subroutine48           0011385D 
    -------------------------------------------------------------------------
CODE
  Relative segment, address: 00113864 - 00113867 (0x4 bytes), align: 2
  Segment part 114.           Intra module refs:   dLoaderSetFilePointer
    -------------------------------------------------------------------------
CODE
  Relative segment, address: 00113868 - 0011386B (0x4 bytes), align: 2
  Segment part 115.           Intra module refs:   dLoaderCheckFiles
                                                   dLoaderSetFilePointer
    -------------------------------------------------------------------------
CODE
  Relative segment, address: 0011386C - 0011389D (0x32 bytes), align: 2
  Segment part 117.           Intra module refs:   dLoaderCheckName
                                                   dLoaderInsertSearchStr
           ENTRY                   ADDRESS         REF BY
           =====                   =======         ======
           dLoaderCpyToLower       0011386D 
               stack 1 = 00000000 ( 00000010 )
    -------------------------------------------------------------------------
CODE
  Relative segment, address: 001138A0 - 001138FF (0x60 bytes), align: 2
  Segment part 119.           Intra module refs:   dLoaderCheckDownload
                                                   dLoaderFindNext
           ENTRY                   ADDRESS         REF BY
           =====                   =======         ======
           dLoaderCheckName        001138A1        cLoaderFindModule (c_loader)
               stack 1 = 00000000 ( 00000028 )
    -------------------------------------------------------------------------
CODE
  Relative segment, address: 00113900 - 00113983 (0x84 bytes), align: 2
  Segment part 121.           Intra module refs:   dLoaderFind
           ENTRY                   ADDRESS         REF BY
           =====                   =======         ======
           dLoaderInsertSearchStr
                                   00113901        cLoaderFileRq (c_loader)
               stack 1 = 00000000 ( 00000014 )
    -------------------------------------------------------------------------
CODE
  Relative segment, address: 00113984 - 001139A7 (0x24 bytes), align: 2
  Segment part 123.           Intra module refs:   dLoaderRead
                                                   dLoaderWriteData
           ENTRY                   ADDRESS         REF BY
           =====                   =======         ======
           dLoaderCheckHandle      00113985 
               stack 1 = 00000000 ( 0000000C )
    -------------------------------------------------------------------------
CODE
  Relative segment, address: 001139A8 - 001139AD (0x6 bytes), align: 2
  Segment part 125.
           ENTRY                   ADDRESS         REF BY
           =====                   =======         ======
           dLoaderReturnFreeUserFlash
                                   001139A9        cLoaderFileRq (c_loader)
                                                   cLoaderInit (c_loader)
    -------------------------------------------------------------------------
CODE
  Relative segment, address: 001139B0 - 001139B3 (0x4 bytes), align: 2
  Segment part 126.           Intra module refs:   dLoaderReturnFreeUserFlash
    -------------------------------------------------------------------------
CODE
  Relative segment, address: 001139B4 - 001139F7 (0x44 bytes), align: 2
  Segment part 128.
           ENTRY                   ADDRESS         REF BY
           =====                   =======         ======
           dLoaderRenameFile       001139B5        cLoaderFileRq (c_loader)
               stack 1 = 00000000 ( 0000010C )
    -------------------------------------------------------------------------
CODE
  Relative segment, address: 001139F8 - 001139FD (0x6 bytes), align: 2
  Segment part 129.           Intra module refs:   dLoaderCheckHandle
                                                   dLoaderRenameFile
           LOCAL                   ADDRESS         
           =====                   =======         
           ?Subroutine50           001139F9 
    -------------------------------------------------------------------------
CODE
  Relative segment, address: 00113A00 - 00113A03 (0x4 bytes), align: 2
  Segment part 130.           Intra module refs:   dLoaderOpenAppend
                                                   dLoaderRenameFile
                                                   dLoaderSetFilePointer
    -------------------------------------------------------------------------
CODE
  Relative segment, address: 00113A04 - 00113A45 (0x42 bytes), align: 2
  Segment part 132.           Intra module refs:   dLoaderCreateFileHeader
                                                   dLoaderOpenAppend
           ENTRY                   ADDRESS         REF BY
           =====                   =======         ======
           dLoaderCheckDownload    00113A05 
               stack 1 = 00000000 ( 00000010 )
    -------------------------------------------------------------------------
CODE
  Relative segment, address: 00113A48 - 00113A4B (0x4 bytes), align: 2
  Segment part 133.           Intra module refs:   dLoaderCheckDownload
                                                   dLoaderCheckHandle
                                                   dLoaderOpenAppend
    -------------------------------------------------------------------------
CODE
  Relative segment, address: 00113A4C - 00113A4F (0x4 bytes), align: 2
  Segment part 134.           Intra module refs:   dLoaderCheckDownload
    -------------------------------------------------------------------------
CODE
  Relative segment, address: 00113A50 - 00113ACB (0x7c bytes), align: 2
  Segment part 136.
           ENTRY                   ADDRESS         REF BY
           =====                   =======         ======
           dLoaderCropDatafile     00113A51        cLoaderFileRq (c_loader)
               stack 1 = 00000000 ( 00000414 )
    -------------------------------------------------------------------------
CODE
  Relative segment, address: 00113ACC - 00113ACF (0x4 bytes), align: 2
  Segment part 137.           Intra module refs:   dLoaderCheckDownload
                                                   dLoaderCheckHandle
                                                   dLoaderCropDatafile
                                                   dLoaderRenameFile
    -------------------------------------------------------------------------
CODE
  Relative segment, address: 00113AD0 - 00113AD3 (0x4 bytes), align: 2
  Segment part 138.           Intra module refs:   dLoaderCropDatafile
    -------------------------------------------------------------------------
CODE_ID
  Relative segment, address: 00120710 - 00120721 (0x12 bytes), align: 2
  Segment part 154.           Intra module refs:   AT91F_Flash_Ready
    -------------------------------------------------------------------------
CODE_ID
  Relative segment, address: 00120724 - 00120757 (0x34 bytes), align: 2
  Segment part 156.           Intra module refs:   dLoaderWritePage
    -------------------------------------------------------------------------
CODE_ID
  Relative segment, address: 00120758 - 0012077F (0x28 bytes), align: 2
  Segment part 158.           Intra module refs:   dLoaderErasePage
    -------------------------------------------------------------------------
CODE_ID
  Relative segment, address: 00120780 - 001207A5 (0x26 bytes), align: 2
  Segment part 159.           Intra module refs:   ?Subroutine42
    -------------------------------------------------------------------------
CODE_ID
  Relative segment, address: 001207A8 - 001207AB (0x4 bytes), align: 2
  Segment part 160.           Intra module refs:   Segment part 16
    -------------------------------------------------------------------------
CODE_ID
  Relative segment, address: 001207AC - 001207AF (0x4 bytes), align: 2
  Segment part 161.           Intra module refs:   Segment part 17
    -------------------------------------------------------------------------
CODE_ID
  Relative segment, address: 001207B0 - 001207B3 (0x4 bytes), align: 2
  Segment part 162.           Intra module refs:   Segment part 18

    *************************************************************************

  FILE NAME : C:\Documents and Settings\Lane Kolbly\My Documents\GitHub\blindnxt\AT91SAM7S256\SAM7S256\Object\d_lowspeed.r79
  PROGRAM MODULE, NAME : d_lowspeed

  SEGMENTS IN THE MODULE
  ======================
DATA_I
  Relative segment, address: 000004FC - 0000057B (0x80 bytes), align: 2
  Segment part 2.             Intra module refs:   LowSpeedPwmIrqHandler
                                                   Segment part 28
           ENTRY                   ADDRESS         REF BY
           =====                   =======         ======
           CLK_PINS                0000056C 
           DATA_PINS               0000055C 
           LOCAL                   ADDRESS         
           =====                   =======         
           LowSpeedData            000004FC 
    -------------------------------------------------------------------------
CODE_I
  Relative segment, address: 0000BBE8 - 0000C2A5 (0x6be bytes), align: 2
  Segment part 5.             Intra module refs:   dLowSpeedInit
           ENTRY                   ADDRESS         REF BY
           =====                   =======         ======
           LowSpeedPwmIrqHandler   0000BBE9 
               stack 1 = 00000000 ( 0000001C )
    -------------------------------------------------------------------------
CODE
  Relative segment, address: 00113AD4 - 00113B67 (0x94 bytes), align: 2
  Segment part 7.
           ENTRY                   ADDRESS         REF BY
           =====                   =======         ======
           dLowSpeedInit           00113AD5        cLowSpeedInit (c_lowspeed)
               stack 1 = 00000000 ( 00000004 )
    -------------------------------------------------------------------------
CODE
  Relative segment, address: 00113B68 - 00113B6F (0x8 bytes), align: 2
  Segment part 9.
           ENTRY                   ADDRESS         REF BY
           =====                   =======         ======
           dLowSpeedStartTimer     00113B69        cLowSpeedCtrl (c_lowspeed)
    -------------------------------------------------------------------------
CODE
  Relative segment, address: 00113B70 - 00113B73 (0x4 bytes), align: 2
  Segment part 11.
           ENTRY                   ADDRESS         REF BY
           =====                   =======         ======
           dLowSpeedStopTimer      00113B71        cLowSpeedCtrl (c_lowspeed)
    -------------------------------------------------------------------------
CODE
  Relative segment, address: 00113B74 - 00113B7F (0xc bytes), align: 2
  Segment part 12.            Intra module refs:   dLowSpeedStartTimer
                                                   dLowSpeedStopTimer
           LOCAL                   ADDRESS         
           =====                   =======         
           ?Subroutine10           00113B75 
    -------------------------------------------------------------------------
CODE
  Relative segment, address: 00113B80 - 00113BB3 (0x34 bytes), align: 2
  Segment part 14.
           ENTRY                   ADDRESS         REF BY
           =====                   =======         ======
           dLowSpeedInitPins       00113B81        cLowSpeedCtrl (c_lowspeed)
               stack 1 = 00000000 ( 00000004 )
    -------------------------------------------------------------------------
CODE
  Relative segment, address: 00113BB4 - 00113D1F (0x16c bytes), align: 2
  Segment part 16.
           ENTRY                   ADDRESS         REF BY
           =====                   =======         ======
           dLowSpeedSendData       00113BB5        cLowSpeedCtrl (c_lowspeed)
               stack 1 = 00000000 ( 0000001C )
    -------------------------------------------------------------------------
CODE
  Relative segment, address: 00113D20 - 00113D23 (0x4 bytes), align: 2
  Segment part 17.            Intra module refs:   dLowSpeedInitPins
                                                   dLowSpeedSendData
    -------------------------------------------------------------------------
CODE
  Relative segment, address: 00113D24 - 00113D27 (0x4 bytes), align: 2
  Segment part 18.            Intra module refs:   dLowSpeedInitPins
                                                   dLowSpeedSendData
    -------------------------------------------------------------------------
CODE
  Relative segment, address: 00113D28 - 00113D2B (0x4 bytes), align: 2
  Segment part 19.            Intra module refs:   dLowSpeedInitPins
                                                   dLowSpeedSendData
    -------------------------------------------------------------------------
CODE
  Relative segment, address: 00113D2C - 00113D2F (0x4 bytes), align: 2
  Segment part 20.            Intra module refs:   dLowSpeedInitPins
                                                   dLowSpeedSendData
    -------------------------------------------------------------------------
CODE
  Relative segment, address: 00113D30 - 00113D33 (0x4 bytes), align: 2
  Segment part 21.            Intra module refs:   dLowSpeedInitPins
                                                   dLowSpeedSendData
    -------------------------------------------------------------------------
CODE
  Relative segment, address: 00113D34 - 00113D4F (0x1c bytes), align: 2
  Segment part 23.
           ENTRY                   ADDRESS         REF BY
           =====                   =======         ======
           dLowSpeedReceiveData    00113D35        cLowSpeedCtrl (c_lowspeed)
    -------------------------------------------------------------------------
CODE
  Relative segment, address: 00113D50 - 00113D87 (0x38 bytes), align: 2
  Segment part 25.
           ENTRY                   ADDRESS         REF BY
           =====                   =======         ======
           dLowSpeedComTxStatus    00113D51        cLowSpeedCtrl (c_lowspeed)
               stack 1 = 00000000 ( 00000004 )
    -------------------------------------------------------------------------
CODE
  Relative segment, address: 00113D88 - 00113DA9 (0x22 bytes), align: 2
  Segment part 27.
           ENTRY                   ADDRESS         REF BY
           =====                   =======         ======
           dLowSpeedComRxStatus    00113D89        cLowSpeedCtrl (c_lowspeed)
               stack 1 = 00000000 ( 00000004 )
    -------------------------------------------------------------------------
CODE
  Relative segment, address: 00113DAC - 00113DAF (0x4 bytes), align: 2
  Segment part 28.            Intra module refs:   dLowSpeedComRxStatus
                                                   dLowSpeedComTxStatus
                                                   dLowSpeedInit
                                                   dLowSpeedReceiveData
                                                   dLowSpeedSendData
    -------------------------------------------------------------------------
CODE
  Relative segment, address: 00113DB0 - 00113DB1 (0x2 bytes), align: 2
  Segment part 30.
           ENTRY                   ADDRESS         REF BY
           =====                   =======         ======
           dLowSpeedExit           00113DB1        cLowSpeedExit (c_lowspeed)
    -------------------------------------------------------------------------
DATA_ID
  Relative segment, address: 00119CA8 - 00119D27 (0x80 bytes), align: 2
  Segment part 3.             Intra module refs:   Segment part 2
    -------------------------------------------------------------------------
CODE_ID
  Relative segment, address: 001207B4 - 00120E71 (0x6be bytes), align: 2
  Segment part 36.            Intra module refs:   LowSpeedPwmIrqHandler

    *************************************************************************

  FILE NAME : C:\Documents and Settings\Lane Kolbly\My Documents\GitHub\blindnxt\AT91SAM7S256\SAM7S256\Object\d_output.r79
  PROGRAM MODULE, NAME : d_output

  SEGMENTS IN THE MODULE
  ======================
DATA_Z
  Relative segment, address: 0000B950 - 0000B973 (0x24 bytes), align: 2
  Segment part 2.             Intra module refs:   Segment part 11
                                                   Segment part 17
                                                   Segment part 49
           LOCAL                   ADDRESS         
           =====                   =======         
           MotorTachoValue         0000B950 
    -------------------------------------------------------------------------
CODE_I
  Relative segment, address: 0000C2A8 - 0000C2DF (0x38 bytes), align: 2
  Segment part 6.             Intra module refs:   dOutputInit
           ENTRY                   ADDRESS         REF BY
           =====                   =======         ======
           CaptureAInt             0000C2A9 
               stack 1 = 00000000 ( 00000004 )
    -------------------------------------------------------------------------
CODE_I
  Relative segment, address: 0000C2E0 - 0000C317 (0x38 bytes), align: 2
  Segment part 8.             Intra module refs:   dOutputInit
           ENTRY                   ADDRESS         REF BY
           =====                   =======         ======
           CaptureBInt             0000C2E1 
               stack 1 = 00000000 ( 00000004 )
    -------------------------------------------------------------------------
CODE_I
  Relative segment, address: 0000C318 - 0000C353 (0x3c bytes), align: 2
  Segment part 10.            Intra module refs:   dOutputInit
           ENTRY                   ADDRESS         REF BY
           =====                   =======         ======
           CaptureCInt             0000C319 
               stack 1 = 00000000 ( 00000004 )
    -------------------------------------------------------------------------
CODE_I
  Relative segment, address: 0000C354 - 0000C357 (0x4 bytes), align: 2
  Segment part 11.            Intra module refs:   CaptureAInt
                                                   CaptureBInt
                                                   CaptureCInt
    -------------------------------------------------------------------------
CODE_I
  Relative segment, address: 0000C358 - 0000C35B (0x4 bytes), align: 2
  Segment part 12.            Intra module refs:   CaptureAInt
                                                   CaptureBInt
                                                   CaptureCInt
    -------------------------------------------------------------------------
DATA_Z
  Relative segment, address: 0000B974 - 0000BA0F (0x9c bytes), align: 2
  Segment part 3.             Intra module refs:   Segment part 44
                                                   Segment part 53
                                                   Segment part 63
                                                   Segment part 69
                                                   Segment part 80
                                                   Segment part 81
                                                   Segment part 82
                                                   Segment part 83
                                                   Segment part 86
           LOCAL                   ADDRESS         
           =====                   =======         
           MotorData               0000B974 
    -------------------------------------------------------------------------
DATA_Z
  Relative segment, address: 0000BA10 - 0000BA1B (0xc bytes), align: 2
  Segment part 4.             Intra module refs:   Segment part 33
                                                   Segment part 70
           LOCAL                   ADDRESS         
           =====                   =======         
           SyncData                0000BA10 
    -------------------------------------------------------------------------
CODE
  Relative segment, address: 00113DB4 - 00114037 (0x284 bytes), align: 2
  Segment part 14.
           ENTRY                   ADDRESS         REF BY
           =====                   =======         ======
           dOutputInit             00113DB5        cOutputInit (c_output)
               stack 1 = 00000000 ( 00000014 )
    -------------------------------------------------------------------------
CODE
  Relative segment, address: 00114038 - 00114101 (0xca bytes), align: 2
  Segment part 16.
           ENTRY                   ADDRESS         REF BY
           =====                   =======         ======
           dOutputCtrl             00114039        cOutputCtrl (c_output)
               stack 1 = 00000000 ( 00000020 )
    -------------------------------------------------------------------------
CODE
  Relative segment, address: 00114104 - 00114107 (0x4 bytes), align: 2
  Segment part 17.            Intra module refs:   dOutputCtrl
    -------------------------------------------------------------------------
CODE
  Relative segment, address: 00114108 - 0011410B (0x4 bytes), align: 2
  Segment part 18.            Intra module refs:   dOutputCtrl
                                                   dOutputInit
    -------------------------------------------------------------------------
CODE
  Relative segment, address: 0011410C - 00114133 (0x28 bytes), align: 2
  Segment part 20.
           ENTRY                   ADDRESS         REF BY
           =====                   =======         ======
           dOutputExit             0011410D        cOutputExit (c_output)
    -------------------------------------------------------------------------
CODE
  Relative segment, address: 00114134 - 00114137 (0x4 bytes), align: 2
  Segment part 21.            Intra module refs:   dOutputExit
                                                   dOutputInit
    -------------------------------------------------------------------------
CODE
  Relative segment, address: 00114138 - 0011413B (0x4 bytes), align: 2
  Segment part 22.            Intra module refs:   dOutputExit
                                                   dOutputInit
    -------------------------------------------------------------------------
CODE
  Relative segment, address: 0011413C - 0011413F (0x4 bytes), align: 2
  Segment part 23.            Intra module refs:   dOutputExit
                                                   dOutputInit
    -------------------------------------------------------------------------
CODE
  Relative segment, address: 00114140 - 00114143 (0x4 bytes), align: 2
  Segment part 24.            Intra module refs:   dOutputExit
                                                   dOutputInit
    -------------------------------------------------------------------------
CODE
  Relative segment, address: 00114144 - 00114147 (0x4 bytes), align: 2
  Segment part 25.            Intra module refs:   dOutputExit
                                                   dOutputInit
    -------------------------------------------------------------------------
CODE
  Relative segment, address: 00114148 - 0011418D (0x46 bytes), align: 2
  Segment part 27.
           ENTRY                   ADDRESS         REF BY
           =====                   =======         ======
           dOutputGetMotorParameters
                                   00114149        cOutputUpdateIomap (c_output)
               stack 1 = 00000000 ( 00000024 )
    -------------------------------------------------------------------------
CODE
  Relative segment, address: 00114190 - 001141A9 (0x1a bytes), align: 2
  Segment part 29.
           ENTRY                   ADDRESS         REF BY
           =====                   =======         ======
           dOutputSetMode          00114191        cOutputCtrl (c_output)
               stack 1 = 00000000 ( 00000008 )
    -------------------------------------------------------------------------
CODE
  Relative segment, address: 001141AC - 001141AF (0x4 bytes), align: 2
  Segment part 30.            Intra module refs:   dOutputSetMode
    -------------------------------------------------------------------------
CODE
  Relative segment, address: 001141B0 - 001141EB (0x3c bytes), align: 2
  Segment part 32.
           ENTRY                   ADDRESS         REF BY
           =====                   =======         ======
           dOutputEnableRegulation
                                   001141B1        cOutputCtrl (c_output)
               stack 1 = 00000000 ( 00000004 )
    -------------------------------------------------------------------------
CODE
  Relative segment, address: 001141EC - 001141EF (0x4 bytes), align: 2
  Segment part 33.            Intra module refs:   dOutputEnableRegulation
    -------------------------------------------------------------------------
CODE
  Relative segment, address: 001141F0 - 001141FD (0xe bytes), align: 2
  Segment part 35.
           ENTRY                   ADDRESS         REF BY
           =====                   =======         ======
           dOutputDisableRegulation
                                   001141F1        cOutputCtrl (c_output)
    -------------------------------------------------------------------------
CODE
  Relative segment, address: 00114200 - 00114223 (0x24 bytes), align: 2
  Segment part 37.
           ENTRY                   ADDRESS         REF BY
           =====                   =======         ======
           dOutputResetTachoLimit
                                   00114201        cOutputCtrl (c_output)
               stack 1 = 00000000 ( 0000000C )
    -------------------------------------------------------------------------
CODE
  Relative segment, address: 00114224 - 00114231 (0xe bytes), align: 2
  Segment part 39.
           ENTRY                   ADDRESS         REF BY
           =====                   =======         ======
           dOutputResetBlockTachoLimit
                                   00114225        cOutputCtrl (c_output)
    -------------------------------------------------------------------------
CODE
  Relative segment, address: 00114234 - 00114241 (0xe bytes), align: 2
  Segment part 41.
           ENTRY                   ADDRESS         REF BY
           =====                   =======         ======
           dOutputResetRotationCaptureCount
                                   00114235        cOutputCtrl (c_output)
    -------------------------------------------------------------------------
CODE
  Relative segment, address: 00114244 - 00114257 (0x14 bytes), align: 2
  Segment part 43.
           ENTRY                   ADDRESS         REF BY
           =====                   =======         ======
           dOutputSetPIDParameters
                                   00114245        cOutputCtrl (c_output)
               stack 1 = 00000000 ( 00000004 )
    -------------------------------------------------------------------------
CODE
  Relative segment, address: 00114258 - 0011425B (0x4 bytes), align: 2
  Segment part 44.            Intra module refs:   dOutputCtrl
                                                   dOutputDisableRegulation
                                                   dOutputEnableRegulation
                                                   dOutputGetMotorParameters
                                                   dOutputInit
                                                   dOutputResetBlockTachoLimit
                                                   dOutputResetRotationCaptureCount
                                                   dOutputResetTachoLimit
                                                   dOutputSetPIDParameters
    -------------------------------------------------------------------------
CODE
  Relative segment, address: 0011425C - 0011429B (0x40 bytes), align: 2
  Segment part 46.
           ENTRY                   ADDRESS         REF BY
           =====                   =======         ======
           dOutputSetTachoLimit    0011425D        cOutputCtrl (c_output)
               stack 1 = 00000000 ( 00000004 )
    -------------------------------------------------------------------------
CODE
  Relative segment, address: 0011429C - 00114353 (0xb8 bytes), align: 2
  Segment part 48.
           ENTRY                   ADDRESS         REF BY
           =====                   =======         ======
           dOutputSetSpeed         0011429D        cOutputCtrl (c_output)
               stack 1 = 00000000 ( 00000010 )
    -------------------------------------------------------------------------
CODE
  Relative segment, address: 00114354 - 00114357 (0x4 bytes), align: 2
  Segment part 49.            Intra module refs:   dOutputSetSpeed
    -------------------------------------------------------------------------
CODE
  Relative segment, address: 00114358 - 0011448F (0x138 bytes), align: 2
  Segment part 51.            Intra module refs:   dOutputCtrl
           ENTRY                   ADDRESS         REF BY
           =====                   =======         ======
           dOutputRampUpFunction   00114359 
               stack 1 = 00000000 ( 00000008 )
    -------------------------------------------------------------------------
CODE
  Relative segment, address: 00114490 - 00114495 (0x6 bytes), align: 2
  Segment part 52.            Intra module refs:   dOutputRampUpFunction
                                                   dOutputSetMode
                                                   dOutputTachoLimitControl
           LOCAL                   ADDRESS         
           =====                   =======         
           ?Subroutine29           00114491 
    -------------------------------------------------------------------------
CODE
  Relative segment, address: 00114498 - 0011449B (0x4 bytes), align: 2
  Segment part 53.            Intra module refs:   dOutputRampUpFunction
                                                   dOutputSetSpeed
                                                   dOutputSetTachoLimit
    -------------------------------------------------------------------------
CODE
  Relative segment, address: 0011449C - 00114637 (0x19c bytes), align: 2
  Segment part 55.            Intra module refs:   dOutputCtrl
           ENTRY                   ADDRESS         REF BY
           =====                   =======         ======
           dOutputRampDownFunction
                                   0011449D 
               stack 1 = 00000000 ( 0000000C )
    -------------------------------------------------------------------------
CODE
  Relative segment, address: 00114638 - 0011463D (0x6 bytes), align: 2
  Segment part 56.            Intra module refs:   dOutputRampDownFunction
                                                   dOutputResetTachoLimit
           LOCAL                   ADDRESS         
           =====                   =======         
           ?Subroutine30           00114639 
    -------------------------------------------------------------------------
CODE
  Relative segment, address: 00114640 - 001146A7 (0x68 bytes), align: 2
  Segment part 58.            Intra module refs:   dOutputCtrl
           ENTRY                   ADDRESS         REF BY
           =====                   =======         ======
           dOutputTachoLimitControl
                                   00114641 
               stack 1 = 00000000 ( 00000008 )
    -------------------------------------------------------------------------
CODE
  Relative segment, address: 001146A8 - 001146FF (0x58 bytes), align: 2
  Segment part 60.            Intra module refs:   dOutputCtrl
           ENTRY                   ADDRESS         REF BY
           =====                   =======         ======
           dOutputMotorIdleControl
                                   001146A9 
               stack 1 = 00000000 ( 00000004 )
    -------------------------------------------------------------------------
CODE
  Relative segment, address: 00114700 - 00114743 (0x44 bytes), align: 2
  Segment part 62.            Intra module refs:   dOutputCtrl
           ENTRY                   ADDRESS         REF BY
           =====                   =======         ======
           dOutputRegulateMotor    00114701 
               stack 1 = 00000000 ( 00000008 )
    -------------------------------------------------------------------------
CODE
  Relative segment, address: 00114744 - 00114747 (0x4 bytes), align: 2
  Segment part 63.            Intra module refs:   dOutputMotorIdleControl
                                                   dOutputRampDownFunction
                                                   dOutputRegulateMotor
                                                   dOutputTachoLimitControl
    -------------------------------------------------------------------------
CODE
  Relative segment, address: 00114748 - 00114857 (0x110 bytes), align: 2
  Segment part 65.            Intra module refs:   dOutputRegulateMotor
           ENTRY                   ADDRESS         REF BY
           =====                   =======         ======
           dOutputCalculateMotorPosition
                                   00114749 
               stack 1 = 00000000 ( 00000018 )
    -------------------------------------------------------------------------
CODE
  Relative segment, address: 00114858 - 001149F7 (0x1a0 bytes), align: 2
  Segment part 67.            Intra module refs:   dOutputRegulateMotor
           ENTRY                   ADDRESS         REF BY
           =====                   =======         ======
           dOutputSyncMotorPosition
                                   00114859 
               stack 1 = 00000000 ( 00000014 )
    -------------------------------------------------------------------------
CODE
  Relative segment, address: 001149F8 - 00114A0B (0x14 bytes), align: 2
  Segment part 68.            Intra module refs:   dOutputInit
                                                   dOutputMotorReachedTachoLimit
                                                   dOutputRampDownSynch
                                                   dOutputResetSyncMotors
                                                   dOutputSyncMotorPosition
                                                   dOutputSyncTachoLimitControl
           LOCAL                   ADDRESS         
           =====                   =======         
           ?Subroutine28           001149F9 
    -------------------------------------------------------------------------
CODE
  Relative segment, address: 00114A0C - 00114A0F (0x4 bytes), align: 2
  Segment part 69.            Intra module refs:   dOutputCalculateMotorPosition
                                                   dOutputSyncMotorPosition
    -------------------------------------------------------------------------
CODE
  Relative segment, address: 00114A10 - 00114A13 (0x4 bytes), align: 2
  Segment part 70.            Intra module refs:   dOutputSyncMotorPosition
    -------------------------------------------------------------------------
CODE
  Relative segment, address: 00114A14 - 00114AB5 (0xa2 bytes), align: 2
  Segment part 72.            Intra module refs:   dOutputRampDownFunction
           ENTRY                   ADDRESS         REF BY
           =====                   =======         ======
           dOutputMotorReachedTachoLimit
                                   00114A15 
               stack 1 = 00000000 ( 00000014 )
    -------------------------------------------------------------------------
CODE
  Relative segment, address: 00114AB8 - 00114BBD (0x106 bytes), align: 2
  Segment part 74.            Intra module refs:   dOutputRampDownFunction
                                                   dOutputTachoLimitControl
           ENTRY                   ADDRESS         REF BY
           =====                   =======         ======
           dOutputSyncTachoLimitControl
                                   00114AB9 
               stack 1 = 00000000 ( 00000014 )
    -------------------------------------------------------------------------
CODE
  Relative segment, address: 00114BC0 - 00114C0B (0x4c bytes), align: 2
  Segment part 76.            Intra module refs:   dOutputRegulateMotor
           ENTRY                   ADDRESS         REF BY
           =====                   =======         ======
           dOutputMotorSyncStatus
                                   00114BC1 
               stack 1 = 00000000 ( 00000010 )
    -------------------------------------------------------------------------
CODE
  Relative segment, address: 00114C0C - 00114C11 (0x6 bytes), align: 2
  Segment part 77.            Intra module refs:   dOutputMotorSyncStatus
                                                   dOutputSetSpeed
           LOCAL                   ADDRESS         
           =====                   =======         
           ?Subroutine31           00114C0D 
    -------------------------------------------------------------------------
CODE
  Relative segment, address: 00114C14 - 00114CA3 (0x90 bytes), align: 2
  Segment part 79.            Intra module refs:   dOutputResetTachoLimit
           ENTRY                   ADDRESS         REF BY
           =====                   =======         ======
           dOutputResetSyncMotors
                                   00114C15 
               stack 1 = 00000000 ( 00000014 )
    -------------------------------------------------------------------------
CODE
  Relative segment, address: 00114CA4 - 00114CA7 (0x4 bytes), align: 2
  Segment part 80.            Intra module refs:   dOutputResetSyncMotors
                                                   dOutputSyncTachoLimitControl
    -------------------------------------------------------------------------
CODE
  Relative segment, address: 00114CA8 - 00114CAB (0x4 bytes), align: 2
  Segment part 81.            Intra module refs:   dOutputResetSyncMotors
                                                   dOutputSyncTachoLimitControl
    -------------------------------------------------------------------------
CODE
  Relative segment, address: 00114CAC - 00114CAF (0x4 bytes), align: 2
  Segment part 82.            Intra module refs:   dOutputResetSyncMotors
                                                   dOutputSyncTachoLimitControl
    -------------------------------------------------------------------------
CODE
  Relative segment, address: 00114CB0 - 00114CB3 (0x4 bytes), align: 2
  Segment part 83.            Intra module refs:   dOutputMotorReachedTachoLimit
                                                   dOutputMotorSyncStatus
                                                   dOutputResetSyncMotors
                                                   dOutputSyncTachoLimitControl
    -------------------------------------------------------------------------
CODE
  Relative segment, address: 00114CB4 - 00114D83 (0xd0 bytes), align: 2
  Segment part 85.            Intra module refs:   dOutputRampDownFunction
           ENTRY                   ADDRESS         REF BY
           =====                   =======         ======
           dOutputRampDownSynch    00114CB5 
               stack 1 = 00000000 ( 00000014 )
    -------------------------------------------------------------------------
CODE
  Relative segment, address: 00114D84 - 00114D87 (0x4 bytes), align: 2
  Segment part 86.            Intra module refs:   dOutputRampDownSynch
    -------------------------------------------------------------------------
CODE_ID
  Relative segment, address: 00120E74 - 00120EAB (0x38 bytes), align: 2
  Segment part 92.            Intra module refs:   CaptureAInt
    -------------------------------------------------------------------------
CODE_ID
  Relative segment, address: 00120EAC - 00120EE3 (0x38 bytes), align: 2
  Segment part 94.            Intra module refs:   CaptureBInt
    -------------------------------------------------------------------------
CODE_ID
  Relative segment, address: 00120EE4 - 00120F1F (0x3c bytes), align: 2
  Segment part 96.            Intra module refs:   CaptureCInt
    -------------------------------------------------------------------------
CODE_ID
  Relative segment, address: 00120F20 - 00120F23 (0x4 bytes), align: 2
  Segment part 97.            Intra module refs:   Segment part 11
    -------------------------------------------------------------------------
CODE_ID
  Relative segment, address: 00120F24 - 00120F27 (0x4 bytes), align: 2
  Segment part 98.            Intra module refs:   Segment part 12

    *************************************************************************

  FILE NAME : C:\Documents and Settings\Lane Kolbly\My Documents\GitHub\blindnxt\AT91SAM7S256\SAM7S256\Object\d_sound.r79
  PROGRAM MODULE, NAME : d_sound

  SEGMENTS IN THE MODULE
  ======================
DATA_I
  Relative segment, address: 0000057C - 0000059B (0x20 bytes), align: 2
  Segment part 2.             Intra module refs:   SoundADPCMDecoder
           LOCAL                   ADDRESS         
           =====                   =======         
           IndexTable              0000057C 
    -------------------------------------------------------------------------
DATA_I
  Relative segment, address: 0000059C - 0000064F (0xb4 bytes), align: 2
  Segment part 4.             Intra module refs:   SoundADPCMDecoder
           LOCAL                   ADDRESS         
           =====                   =======         
           StepsizeTable           0000059C 
    -------------------------------------------------------------------------
CODE_I
  Relative segment, address: 0000C35C - 0000C42B (0xd0 bytes), align: 2
  Segment part 10.            Intra module refs:   SoundStart
                                                   SscHandler
           ENTRY                   ADDRESS         REF BY
           =====                   =======         ======
           SoundADPCMDecoder       0000C35D 
               stack 1 = 00000000 ( 0000002C )
    -------------------------------------------------------------------------
DATA_C
  Relative segment, address: 001203AC - 001204EB (0x140 bytes), align: 2
  Segment part 8.             Intra module refs:   SoundFreq
           ENTRY                   ADDRESS         REF BY
           =====                   =======         ======
           TonePattern             001203AC 
    -------------------------------------------------------------------------
CODE
  Relative segment, address: 00114D88 - 00114DB3 (0x2c bytes), align: 2
  Segment part 19.            Intra module refs:   SoundStart
           ENTRY                   ADDRESS         REF BY
           =====                   =======         ======
           SoundSampleRate         00114D89 
               stack 1 = 00000000 ( 00000004 )
    -------------------------------------------------------------------------
CODE_I
  Relative segment, address: 0000C42C - 0000C48F (0x64 bytes), align: 2
  Segment part 12.            Intra module refs:   SoundStart
                                                   SscHandler
           ENTRY                   ADDRESS         REF BY
           =====                   =======         ======
           CalculateBitstream      0000C42D 
               stack 1 = 00000000 ( 00000014 )
    -------------------------------------------------------------------------
CODE_I
  Relative segment, address: 0000C490 - 0000C49B (0xc bytes), align: 2
  Segment part 13.            Intra module refs:   CalculateBitstream
                                                   SoundADPCMDecoder
                                                   SscHandler
           LOCAL                   ADDRESS         
           =====                   =======         
           ?Subroutine17           0000C491 
    -------------------------------------------------------------------------
CODE_I
  Relative segment, address: 0000C49C - 0000C5E7 (0x14c bytes), align: 2
  Segment part 15.            Intra module refs:   dSoundInit
           ENTRY                   ADDRESS         REF BY
           =====                   =======         ======
           SscHandler              0000C49D 
               stack 1 = 00000000 ( 00000014 )
    -------------------------------------------------------------------------
CODE_I
  Relative segment, address: 0000C5E8 - 0000C5EB (0x4 bytes), align: 2
  Segment part 16.            Intra module refs:   CalculateBitstream
                                                   SscHandler
    -------------------------------------------------------------------------
CODE_I
  Relative segment, address: 0000C5EC - 0000C5EF (0x4 bytes), align: 2
  Segment part 17.            Intra module refs:   CalculateBitstream
                                                   SscHandler
    -------------------------------------------------------------------------
DATA_I
  Relative segment, address: 00000650 - 000006FF (0xb0 bytes), align: 2
  Segment part 6.             Intra module refs:   ?Subroutine17
                                                   Segment part 37
                                                   SoundStart
                                                   SoundVolume
                                                   SscHandler
                                                   dSoundReady
           ENTRY                   ADDRESS         REF BY
           =====                   =======         ======
           ClockNext               000006B4 
           CurrentFileFormat       00000655 
           FractionPattern         00000658 
           MelodyPointer           00000668 
           Outdata                 00000650 
           SampleBuffer            000006C0 
           SampleBufferNo          00000652 
           SoundDivider            00000654 
           SoundReady              00000653 
           SoundSamplesLeft        00000664 
           SoundSamplesLeftNext    00000666 
           State                   00000660 
           ToneBuffer              0000066C 
           ToneCycles              000006AC 
           ToneCyclesReady         000006B0 
           pSoundPointer           000006B8 
           pSoundPointerNext       000006BC 
           LOCAL                   ADDRESS         
           =====                   =======         
           SscHandler::ByteCnt     00000656 
    -------------------------------------------------------------------------
CODE
  Relative segment, address: 00114DB4 - 00114EBF (0x10c bytes), align: 2
  Segment part 21.            Intra module refs:   dSoundStart
           ENTRY                   ADDRESS         REF BY
           =====                   =======         ======
           SoundStart              00114DB5 
               stack 1 = 00000000 ( 00000020 )
    -------------------------------------------------------------------------
CODE
  Relative segment, address: 00114EC0 - 00114EDF (0x20 bytes), align: 2
  Segment part 23.            Intra module refs:   dSoundStop
           ENTRY                   ADDRESS         REF BY
           =====                   =======         ======
           SoundStop               00114EC1 
    -------------------------------------------------------------------------
CODE
  Relative segment, address: 00114EE0 - 00114EF3 (0x14 bytes), align: 2
  Segment part 25.            Intra module refs:   dSoundVolume
           ENTRY                   ADDRESS         REF BY
           =====                   =======         ======
           SoundVolume             00114EE1 
               stack 1 = 00000000 ( 00000004 )
    -------------------------------------------------------------------------
CODE
  Relative segment, address: 00114EF4 - 00114FA7 (0xb4 bytes), align: 2
  Segment part 27.            Intra module refs:   SoundTone
                                                   dSoundFreq
           ENTRY                   ADDRESS         REF BY
           =====                   =======         ======
           SoundFreq               00114EF5 
               stack 1 = 00000000 ( 00000018 )
    -------------------------------------------------------------------------
CODE
  Relative segment, address: 00114FA8 - 00114FAB (0x4 bytes), align: 2
  Segment part 28.            Intra module refs:   SoundFreq
                                                   SoundStart
    -------------------------------------------------------------------------
CODE
  Relative segment, address: 00114FAC - 00114FAF (0x4 bytes), align: 2
  Segment part 29.            Intra module refs:   SoundFreq
                                                   SoundStart
    -------------------------------------------------------------------------
CODE
  Relative segment, address: 00114FB0 - 00114FB3 (0x4 bytes), align: 2
  Segment part 30.            Intra module refs:   SoundFreq
                                                   SoundStart
    -------------------------------------------------------------------------
CODE
  Relative segment, address: 00114FB4 - 00114FB7 (0x4 bytes), align: 2
  Segment part 31.            Intra module refs:   SoundFreq
                                                   SoundStart
    -------------------------------------------------------------------------
CODE
  Relative segment, address: 00114FB8 - 00114FBB (0x4 bytes), align: 2
  Segment part 32.            Intra module refs:   SoundFreq
                                                   SoundStart
    -------------------------------------------------------------------------
CODE
  Relative segment, address: 00114FBC - 00115019 (0x5e bytes), align: 2
  Segment part 34.            Intra module refs:   dSoundTone
           ENTRY                   ADDRESS         REF BY
           =====                   =======         ======
           SoundTone               00114FBD 
               stack 1 = 00000000 ( 00000014 )
    -------------------------------------------------------------------------
CODE
  Relative segment, address: 0011501C - 001150C3 (0xa8 bytes), align: 2
  Segment part 36.
           ENTRY                   ADDRESS         REF BY
           =====                   =======         ======
           dSoundInit              0011501D        cSoundInit (c_sound)
               stack 1 = 00000000 ( 00000004 )
    -------------------------------------------------------------------------
CODE
  Relative segment, address: 001150C4 - 001150C7 (0x4 bytes), align: 2
  Segment part 37.            Intra module refs:   SoundFreq
                                                   SoundStop
                                                   SoundTone
                                                   dSoundInit
    -------------------------------------------------------------------------
CODE
  Relative segment, address: 001150C8 - 001150D1 (0xa bytes), align: 2
  Segment part 39.
           ENTRY                   ADDRESS         REF BY
           =====                   =======         ======
           dSoundVolume            001150C9        cSoundCtrl (c_sound)
               stack 1 = 00000000 ( 00000004 )
    -------------------------------------------------------------------------
CODE
  Relative segment, address: 001150D4 - 001150DF (0xc bytes), align: 2
  Segment part 41.
           ENTRY                   ADDRESS         REF BY
           =====                   =======         ======
           dSoundReady             001150D5        cSoundCtrl (c_sound)
    -------------------------------------------------------------------------
CODE
  Relative segment, address: 001150E0 - 001150E9 (0xa bytes), align: 2
  Segment part 43.
           ENTRY                   ADDRESS         REF BY
           =====                   =======         ======
           dSoundStart             001150E1        cSoundCtrl (c_sound)
               stack 1 = 00000000 ( 00000004 )
    -------------------------------------------------------------------------
CODE
  Relative segment, address: 001150EC - 001150F5 (0xa bytes), align: 2
  Segment part 45.
           ENTRY                   ADDRESS         REF BY
           =====                   =======         ======
           dSoundStop              001150ED        cSoundCtrl (c_sound)
               stack 1 = 00000000 ( 00000004 )
    -------------------------------------------------------------------------
CODE
  Relative segment, address: 001150F8 - 00115101 (0xa bytes), align: 2
  Segment part 47.
           ENTRY                   ADDRESS         REF BY
           =====                   =======         ======
           dSoundTone              001150F9        cSoundCtrl (c_sound)
               stack 1 = 00000000 ( 00000004 )
    -------------------------------------------------------------------------
CODE
  Relative segment, address: 00115104 - 0011510D (0xa bytes), align: 2
  Segment part 49.
           ENTRY                   ADDRESS         REF BY
           =====                   =======         ======
           dSoundFreq              00115105        cSoundCtrl (c_sound)
                                                   cUiCtrl (c_ui)
                                                   cUiReadButtons (c_ui)
               stack 1 = 00000000 ( 00000004 )
    -------------------------------------------------------------------------
CODE
  Relative segment, address: 00115110 - 00115127 (0x18 bytes), align: 2
  Segment part 51.
           ENTRY                   ADDRESS         REF BY
           =====                   =======         ======
           dSoundExit              00115111        cSoundExit (c_sound)
    -------------------------------------------------------------------------
CODE
  Relative segment, address: 00115128 - 0011512B (0x4 bytes), align: 2
  Segment part 52.            Intra module refs:   SoundStop
                                                   dSoundExit
                                                   dSoundInit
    -------------------------------------------------------------------------
CODE
  Relative segment, address: 0011512C - 0011512F (0x4 bytes), align: 2
  Segment part 53.            Intra module refs:   SoundStop
                                                   dSoundExit
                                                   dSoundInit
    -------------------------------------------------------------------------
DATA_ID
  Relative segment, address: 00119D28 - 00119D47 (0x20 bytes), align: 2
  Segment part 3.             Intra module refs:   IndexTable
    -------------------------------------------------------------------------
DATA_ID
  Relative segment, address: 00119D48 - 00119DFB (0xb4 bytes), align: 2
  Segment part 5.             Intra module refs:   StepsizeTable
    -------------------------------------------------------------------------
DATA_ID
  Relative segment, address: 00119DFC - 00119EAB (0xb0 bytes), align: 2
  Segment part 7.             Intra module refs:   Segment part 6
    -------------------------------------------------------------------------
CODE_ID
  Relative segment, address: 00120F28 - 00120FF7 (0xd0 bytes), align: 2
  Segment part 62.            Intra module refs:   SoundADPCMDecoder
    -------------------------------------------------------------------------
CODE_ID
  Relative segment, address: 00120FF8 - 0012105B (0x64 bytes), align: 2
  Segment part 64.            Intra module refs:   CalculateBitstream
    -------------------------------------------------------------------------
CODE_ID
  Relative segment, address: 0012105C - 00121067 (0xc bytes), align: 2
  Segment part 65.            Intra module refs:   ?Subroutine17
    -------------------------------------------------------------------------
CODE_ID
  Relative segment, address: 00121068 - 001211B3 (0x14c bytes), align: 2
  Segment part 67.            Intra module refs:   SscHandler
    -------------------------------------------------------------------------
CODE_ID
  Relative segment, address: 001211B4 - 001211B7 (0x4 bytes), align: 2
  Segment part 68.            Intra module refs:   Segment part 16
    -------------------------------------------------------------------------
CODE_ID
  Relative segment, address: 001211B8 - 001211BB (0x4 bytes), align: 2
  Segment part 69.            Intra module refs:   Segment part 17

    *************************************************************************

  FILE NAME : C:\Documents and Settings\Lane Kolbly\My Documents\GitHub\blindnxt\AT91SAM7S256\SAM7S256\Object\d_timer.r79
  PROGRAM MODULE, NAME : d_timer

  SEGMENTS IN THE MODULE
  ======================
DATA_Z
  Relative segment, address: 0000BA1C - 0000BA23 (0x8 bytes), align: 2
  Segment part 2.             Intra module refs:   Segment part 15
                                                   dTimerReadNoPoll
           LOCAL                   ADDRESS         
           =====                   =======         
           NextTimerValue          0000BA1C 
           Timer1mS                0000BA20 
    -------------------------------------------------------------------------
CODE
  Relative segment, address: 00115130 - 00115147 (0x18 bytes), align: 2
  Segment part 4.
           ENTRY                   ADDRESS         REF BY
           =====                   =======         ======
           dTimerInit              00115131        cCmdInit (c_cmd)
    -------------------------------------------------------------------------
CODE
  Relative segment, address: 00115148 - 00115165 (0x1e bytes), align: 2
  Segment part 6.
           ENTRY                   ADDRESS         REF BY
           =====                   =======         ======
           dTimerRead              00115149        cCmdCtrl (c_cmd)
                                                   cCmdInit (c_cmd)
                                                   cCmdWrapRandomNumber (c_cmd)
               stack 1 = 00000000 ( 00000004 )
    -------------------------------------------------------------------------
CODE
  Relative segment, address: 00115168 - 0011516B (0x4 bytes), align: 2
  Segment part 7.             Intra module refs:   dTimerInit
                                                   dTimerRead
    -------------------------------------------------------------------------
CODE
  Relative segment, address: 0011516C - 00115177 (0xc bytes), align: 2
  Segment part 9.
           ENTRY                   ADDRESS         REF BY
           =====                   =======         ======
           dTimerReadNoPoll        0011516D        cCmdCtrl (c_cmd)
                                                   cCmdHandleRemoteCommands (c_cmd)
                                                   cCmdInterpUnop1 (c_cmd)
                                                   cCmdInterpUnop2 (c_cmd)
    -------------------------------------------------------------------------
CODE
  Relative segment, address: 00115178 - 0011517B (0x4 bytes), align: 2
  Segment part 12.            Intra module refs:   dTimerInit
                                                   dTimerRead
    -------------------------------------------------------------------------
CODE
  Relative segment, address: 0011517C - 00115181 (0x6 bytes), align: 2
  Segment part 14.
           ENTRY                   ADDRESS         REF BY
           =====                   =======         ======
           dTimerGetNextMSTickCnt
                                   0011517D        cCmdInterpFromClump (c_cmd)
    -------------------------------------------------------------------------
CODE
  Relative segment, address: 00115184 - 00115187 (0x4 bytes), align: 2
  Segment part 15.            Intra module refs:   dTimerGetNextMSTickCnt
                                                   dTimerInit
                                                   dTimerRead
    -------------------------------------------------------------------------
CODE
  Relative segment, address: 00115188 - 00115189 (0x2 bytes), align: 2
  Segment part 17.
           ENTRY                   ADDRESS         REF BY
           =====                   =======         ======
           dTimerExit              00115189        cCmdExit (c_cmd)

    *************************************************************************

  FILE NAME : C:\Documents and Settings\Lane Kolbly\My Documents\GitHub\blindnxt\AT91SAM7S256\SAM7S256\Object\d_usb.r79
  PROGRAM MODULE, NAME : d_usb

  SEGMENTS IN THE MODULE
  ======================
DATA_C
  Relative segment, address: 001204EC - 00120523 (0x38 bytes), align: 2
  Segment part 4.             Intra module refs:   dUsbEnumerate
           ENTRY                   ADDRESS         REF BY
           =====                   =======         ======
           ConfigurationDescriptor
                                   00120500 
           DeviceDescriptor        001204EC 
           LangIdDescriptor        00120520 
    -------------------------------------------------------------------------
DATA_I
  Relative segment, address: 00000700 - 0000073F (0x40 bytes), align: 2
  Segment part 2.             Intra module refs:   Segment part 23
                                                   Segment part 30
                                                   Segment part 46
                                                   Segment part 72
                                                   dUsbGetFirstHandle
                                                   dUsbSendViaControl
           ENTRY                   ADDRESS         REF BY
           =====                   =======         ======
           SerialNumberDescriptor
                                   00000700 
           g_UsbTimeoutCounter     0000073C 
           LOCAL                   ADDRESS         
           =====                   =======         
           BrickNameKnown          0000071D 
           CurrentConfiguration    0000071F 
           CurrentReceiveBank      00000738 
           RequestedData           00000730 
           USBTimeOut              00000734 
           UsbConnectionStates     0000071E 
           UsbHandleCnt            0000071C 
           UsbHandleList           00000720 
    -------------------------------------------------------------------------
CODE
  Relative segment, address: 0011518C - 001151A3 (0x18 bytes), align: 2
  Segment part 6.             Intra module refs:   dUsbInit
           ENTRY                   ADDRESS         REF BY
           =====                   =======         ======
           dUsbDisconnect          0011518D 
    -------------------------------------------------------------------------
CODE
  Relative segment, address: 001151A4 - 001151B5 (0x12 bytes), align: 2
  Segment part 10.            Intra module refs:   dUsbEnumerate
                                                   dUsbInit
                                                   dUsbSendViaControl
                                                   dUsbSendZeroLengthPackage
                                                   dUsbWrite
           ENTRY                   ADDRESS         REF BY
           =====                   =======         ======
           dUsbStartTimeoutTimer   001151A5 
    -------------------------------------------------------------------------
CODE
  Relative segment, address: 001151B8 - 001151ED (0x36 bytes), align: 2
  Segment part 12.            Intra module refs:   dUsbEnumerate
                                                   dUsbSendViaControl
                                                   dUsbSendZeroLengthPackage
                                                   dUsbWrite
           ENTRY                   ADDRESS         REF BY
           =====                   =======         ======
           dUsbTimedOut            001151B9 
               stack 1 = 00000000 ( 00000008 )
    -------------------------------------------------------------------------
CODE
  Relative segment, address: 001151F0 - 001151F3 (0x4 bytes), align: 2
  Segment part 13.            Intra module refs:   dUsbTimedOut
    -------------------------------------------------------------------------
CODE
  Relative segment, address: 001151F4 - 001151F7 (0x4 bytes), align: 2
  Segment part 14.            Intra module refs:   dUsbStartTimeoutTimer
                                                   dUsbTimedOut
    -------------------------------------------------------------------------
CODE
  Relative segment, address: 001151F8 - 001151FB (0x4 bytes), align: 2
  Segment part 15.            Intra module refs:   dUsbTimedOut
    -------------------------------------------------------------------------
CODE
  Relative segment, address: 001151FC - 001151FF (0x4 bytes), align: 2
  Segment part 17.            Intra module refs:   dUsbStoreBtAddress
           ENTRY                   ADDRESS         REF BY
           =====                   =======         ======
           ConvertHighToHex        001151FD 
               stack 1 = 00000000 ( 00000004 )
    -------------------------------------------------------------------------
CODE
  Relative segment, address: 00115200 - 00115203 (0x4 bytes), align: 2
  Segment part 19.            Intra module refs:   dUsbStoreBtAddress
           ENTRY                   ADDRESS         REF BY
           =====                   =======         ======
           ConvertLowToHex         00115201 
               stack 1 = 00000000 ( 00000004 )
    -------------------------------------------------------------------------
CODE
  Relative segment, address: 00115204 - 00115215 (0x12 bytes), align: 2
  Segment part 20.            Intra module refs:   ConvertHighToHex
                                                   ConvertLowToHex
           LOCAL                   ADDRESS         
           =====                   =======         
           ?Subroutine23           00115205 
    -------------------------------------------------------------------------
CODE
  Relative segment, address: 00115218 - 001152A5 (0x8e bytes), align: 2
  Segment part 22.
           ENTRY                   ADDRESS         REF BY
           =====                   =======         ======
           dUsbStoreBtAddress      00115219        cCommCtrl (c_comm)
                                                   cCommUpdateBt (c_comm)
               stack 1 = 00000000 ( 00000010 )
    -------------------------------------------------------------------------
CODE
  Relative segment, address: 001152A8 - 001152AB (0x4 bytes), align: 2
  Segment part 23.            Intra module refs:   dUsbStoreBtAddress
    -------------------------------------------------------------------------
CODE
  Relative segment, address: 001152AC - 001152AF (0x4 bytes), align: 2
  Segment part 24.            Intra module refs:   dUsbDisconnect
                                                   dUsbStoreBtAddress
    -------------------------------------------------------------------------
CODE
  Relative segment, address: 001152B0 - 001152B3 (0x4 bytes), align: 2
  Segment part 25.            Intra module refs:   dUsbDisconnect
                                                   dUsbStoreBtAddress
    -------------------------------------------------------------------------
CODE
  Relative segment, address: 001152B4 - 001152B7 (0x4 bytes), align: 2
  Segment part 26.            Intra module refs:   dUsbStoreBtAddress
    -------------------------------------------------------------------------
CODE
  Relative segment, address: 001152B8 - 0011531F (0x68 bytes), align: 2
  Segment part 28.
           ENTRY                   ADDRESS         REF BY
           =====                   =======         ======
           dUsbRead                001152B9        cCommCtrl (c_comm)
               stack 1 = 00000000 ( 00000014 )
    -------------------------------------------------------------------------
CODE
  Relative segment, address: 00115320 - 0011532B (0xc bytes), align: 2
  Segment part 29.            Intra module refs:   dUsbIsConfigured
                                                   dUsbRead
                                                   dUsbWrite
           LOCAL                   ADDRESS         
           =====                   =======         
           ?Subroutine24           00115321 
    -------------------------------------------------------------------------
CODE
  Relative segment, address: 0011532C - 0011532F (0x4 bytes), align: 2
  Segment part 30.            Intra module refs:   dUsbRead
                                                   dUsbStartTimeoutTimer
                                                   dUsbTimedOut
    -------------------------------------------------------------------------
CODE
  Relative segment, address: 00115330 - 00115333 (0x4 bytes), align: 2
  Segment part 31.            Intra module refs:   dUsbRead
    -------------------------------------------------------------------------
CODE
  Relative segment, address: 00115334 - 001153DF (0xac bytes), align: 2
  Segment part 33.
           ENTRY                   ADDRESS         REF BY
           =====                   =======         ======
           dUsbWrite               00115335        cCommCtrl (c_comm)
               stack 1 = 00000000 ( 00000014 )
    -------------------------------------------------------------------------
CODE
  Relative segment, address: 001153E0 - 001153E3 (0x4 bytes), align: 2
  Segment part 34.            Intra module refs:   dUsbWrite
    -------------------------------------------------------------------------
CODE
  Relative segment, address: 001153E4 - 00115405 (0x22 bytes), align: 2
  Segment part 36.            Intra module refs:   dUsbEnumerate
           LOCAL                   ADDRESS         
           =====                   =======         
           dUsbSendStall           001153E5 
               stack 1 = 00000000 ( 00000004 )
    -------------------------------------------------------------------------
CODE
  Relative segment, address: 00115408 - 00115439 (0x32 bytes), align: 2
  Segment part 38.            Intra module refs:   dUsbEnumerate
                                                   dUsbSendViaControl
           LOCAL                   ADDRESS         
           =====                   =======         
           dUsbSendZeroLengthPackage
                                   00115409 
               stack 1 = 00000000 ( 00000008 )
    -------------------------------------------------------------------------
CODE
  Relative segment, address: 0011543C - 001154F7 (0xbc bytes), align: 2
  Segment part 40.            Intra module refs:   dUsbEnumerate
           LOCAL                   ADDRESS         
           =====                   =======         
           dUsbSendViaControl      0011543D 
               stack 1 = 00000000 ( 0000001C )
    -------------------------------------------------------------------------
CODE
  Relative segment, address: 001154F8 - 001154FB (0x4 bytes), align: 2
  Segment part 41.            Intra module refs:   dUsbSendViaControl
    -------------------------------------------------------------------------
CODE
  Relative segment, address: 001154FC - 001154FF (0x4 bytes), align: 2
  Segment part 42.            Intra module refs:   dUsbSendStall
                                                   dUsbSendViaControl
                                                   dUsbSendZeroLengthPackage
    -------------------------------------------------------------------------
CODE
  Relative segment, address: 00115500 - 001157AB (0x2ac bytes), align: 2
  Segment part 44.            Intra module refs:   dUsbIsConfigured
           LOCAL                   ADDRESS         
           =====                   =======         
           dUsbEnumerate           00115501 
               stack 1 = 00000000 ( 00000020 )
    -------------------------------------------------------------------------
CODE
  Relative segment, address: 001157AC - 001157AF (0x4 bytes), align: 2
  Segment part 45.            Intra module refs:   dUsbEnumerate
    -------------------------------------------------------------------------
CODE
  Relative segment, address: 001157B0 - 001157B3 (0x4 bytes), align: 2
  Segment part 46.            Intra module refs:   dUsbEnumerate
    -------------------------------------------------------------------------
CODE
  Relative segment, address: 001157B4 - 001157B7 (0x4 bytes), align: 2
  Segment part 47.            Intra module refs:   dUsbEnumerate
    -------------------------------------------------------------------------
CODE
  Relative segment, address: 001157B8 - 001157BB (0x4 bytes), align: 2
  Segment part 48.            Intra module refs:   dUsbEnumerate
    -------------------------------------------------------------------------
CODE
  Relative segment, address: 001157BC - 001157BF (0x4 bytes), align: 2
  Segment part 49.            Intra module refs:   dUsbEnumerate
    -------------------------------------------------------------------------
CODE
  Relative segment, address: 001157C0 - 00115857 (0x98 bytes), align: 2
  Segment part 51.            Intra module refs:   dUsbRead
                                                   dUsbWrite
           ENTRY                   ADDRESS         REF BY
           =====                   =======         ======
           dUsbIsConfigured        001157C1        cCommCtrl (c_comm)
               stack 1 = 00000000 ( 00000014 )
    -------------------------------------------------------------------------
CODE
  Relative segment, address: 00115858 - 0011585B (0x4 bytes), align: 2
  Segment part 52.            Intra module refs:   dUsbEnumerate
                                                   dUsbIsConfigured
    -------------------------------------------------------------------------
CODE
  Relative segment, address: 0011585C - 0011585F (0x4 bytes), align: 2
  Segment part 53.            Intra module refs:   dUsbIsConfigured
    -------------------------------------------------------------------------
CODE
  Relative segment, address: 00115860 - 00115881 (0x22 bytes), align: 2
  Segment part 55.
           ENTRY                   ADDRESS         REF BY
           =====                   =======         ======
           dUsbInsertHandle        00115861        cCommInterpreteCmd (c_comm)
               stack 1 = 00000000 ( 00000004 )
    -------------------------------------------------------------------------
CODE
  Relative segment, address: 00115884 - 001158A7 (0x24 bytes), align: 2
  Segment part 57.
           ENTRY                   ADDRESS         REF BY
           =====                   =======         ======
           dUsbRemoveHandle        00115885        cCommCtrl (c_comm)
                                                   cCommInterpreteCmd (c_comm)
               stack 1 = 00000000 ( 00000004 )
    -------------------------------------------------------------------------
CODE
  Relative segment, address: 001158A8 - 001158BB (0x14 bytes), align: 2
  Segment part 59.
           ENTRY                   ADDRESS         REF BY
           =====                   =======         ======
           dUsbGetFirstHandle      001158A9        cCommCtrl (c_comm)
               stack 1 = 00000000 ( 00000004 )
    -------------------------------------------------------------------------
CODE
  Relative segment, address: 001158BC - 001158E7 (0x2c bytes), align: 2
  Segment part 61.            Intra module refs:   dUsbGetFirstHandle
           ENTRY                   ADDRESS         REF BY
           =====                   =======         ======
           dUsbGetNextHandle       001158BD        cCommCtrl (c_comm)
               stack 1 = 00000000 ( 00000008 )
    -------------------------------------------------------------------------
CODE
  Relative segment, address: 001158E8 - 001158ED (0x6 bytes), align: 2
  Segment part 62.            Intra module refs:   dUsbGetNextHandle
                                                   dUsbTimedOut
           LOCAL                   ADDRESS         
           =====                   =======         
           ?Subroutine22           001158E9 
    -------------------------------------------------------------------------
CODE
  Relative segment, address: 001158F0 - 0011590F (0x20 bytes), align: 2
  Segment part 64.
           ENTRY                   ADDRESS         REF BY
           =====                   =======         ======
           dUsbCheckConnection     001158F1        cCommCtrl (c_comm)
               stack 1 = 00000000 ( 00000004 )
    -------------------------------------------------------------------------
CODE
  Relative segment, address: 00115910 - 00115977 (0x68 bytes), align: 2
  Segment part 66.
           ENTRY                   ADDRESS         REF BY
           =====                   =======         ======
           dUsbInit                00115911        cCommInit (c_comm)
               stack 1 = 00000000 ( 0000000C )
    -------------------------------------------------------------------------
CODE
  Relative segment, address: 00115978 - 0011597B (0x4 bytes), align: 2
  Segment part 67.            Intra module refs:   dUsbInit
    -------------------------------------------------------------------------
CODE
  Relative segment, address: 0011597C - 0011597F (0x4 bytes), align: 2
  Segment part 68.            Intra module refs:   dUsbInit
    -------------------------------------------------------------------------
CODE
  Relative segment, address: 00115980 - 00115983 (0x4 bytes), align: 2
  Segment part 69.            Intra module refs:   dUsbInit
    -------------------------------------------------------------------------
CODE
  Relative segment, address: 00115984 - 0011598B (0x8 bytes), align: 2
  Segment part 71.
           ENTRY                   ADDRESS         REF BY
           =====                   =======         ======
           dUsbResetConfig         00115985        cCommCtrl (c_comm)
    -------------------------------------------------------------------------
CODE
  Relative segment, address: 0011598C - 0011598F (0x4 bytes), align: 2
  Segment part 72.            Intra module refs:   dUsbGetNextHandle
                                                   dUsbInit
                                                   dUsbInsertHandle
                                                   dUsbIsConfigured
                                                   dUsbRemoveHandle
                                                   dUsbResetConfig
    -------------------------------------------------------------------------
CODE
  Relative segment, address: 00115990 - 00115991 (0x2 bytes), align: 2
  Segment part 74.
           ENTRY                   ADDRESS         REF BY
           =====                   =======         ======
           dUsbExit                00115991        cCommExit (c_comm)
    -------------------------------------------------------------------------
DATA_ID
  Relative segment, address: 00119EAC - 00119EEB (0x40 bytes), align: 2
  Segment part 3.             Intra module refs:   Segment part 2

    *************************************************************************

  FILE NAME : C:\Documents and Settings\Lane Kolbly\My Documents\GitHub\blindnxt\AT91SAM7S256\SAM7S256\Object\m_sched.r79
  PROGRAM MODULE, NAME : m_sched

  SEGMENTS IN THE MODULE
  ======================
CODE
  Relative segment, address: 00115994 - 001159EF (0x5c bytes), align: 2
  Segment part 7.
           ENTRY                   ADDRESS         REF BY
           =====                   =======         ======
           main                    00115995        Segment part 3 (?RESET_init)
               stack 1 = 00000000 ( 00000004 )
    -------------------------------------------------------------------------
DATA_Z
  Relative segment, address: 0000BA24 - 0000BA2B (0x8 bytes), align: 2
  Segment part 2.
           ENTRY                   ADDRESS         REF BY
           =====                   =======         ======
           IoToAvr                 0000BA24        Segment part 18 (d_output)
                                                   Segment part 30 (d_output)
                                                   Segment part 40 (d_ioctrl)
                                                   Segment part 66 (d_input)
                                                   dIOCtrlSetPwm (d_ioctrl)
                                                   dInputInit (d_input)
                                                   dOutputMotorIdleControl (d_output)
    -------------------------------------------------------------------------
DATA_Z
  Relative segment, address: 0000BA2C - 0000BA37 (0xc bytes), align: 2
  Segment part 3.
           ENTRY                   ADDRESS         REF BY
           =====                   =======         ======
           IoFromAvr               0000BA2C        ?Subroutine6 (d_ioctrl)
                                                   Segment part 115 (c_ui)
                                                   Segment part 179 (c_ui)
                                                   Segment part 32 (d_input)
                                                   Segment part 85 (d_input)
                                                   dButtonInit (d_button)
                                                   dButtonRead (d_button)
    -------------------------------------------------------------------------
DATA_I
  Relative segment, address: 00000740 - 000007BF (0x80 bytes), align: 2
  Segment part 4.             Intra module refs:   Segment part 14
           LOCAL                   ADDRESS         
           =====                   =======         
           pModuleHeaders          00000740 
    -------------------------------------------------------------------------
CODE
  Relative segment, address: 001159F0 - 00115A13 (0x24 bytes), align: 2
  Segment part 9.             Intra module refs:   main
           ENTRY                   ADDRESS         REF BY
           =====                   =======         ======
           mSchedInit              001159F1 
               stack 1 = 00000000 ( 0000000C )
    -------------------------------------------------------------------------
CODE
  Relative segment, address: 00115A14 - 00115A3B (0x28 bytes), align: 2
  Segment part 11.            Intra module refs:   main
           ENTRY                   ADDRESS         REF BY
           =====                   =======         ======
           mSchedCtrl              00115A15 
               stack 1 = 00000000 ( 0000000C )
    -------------------------------------------------------------------------
CODE
  Relative segment, address: 00115A3C - 00115A5D (0x22 bytes), align: 2
  Segment part 13.            Intra module refs:   main
           ENTRY                   ADDRESS         REF BY
           =====                   =======         ======
           mSchedExit              00115A3D 
               stack 1 = 00000000 ( 00000008 )
    -------------------------------------------------------------------------
CODE
  Relative segment, address: 00115A60 - 00115A63 (0x4 bytes), align: 2
  Segment part 14.            Intra module refs:   mSchedCtrl
                                                   mSchedExit
                                                   mSchedInit
    -------------------------------------------------------------------------
DATA_ID
  Relative segment, address: 00119EEC - 00119F6B (0x80 bytes), align: 2
  Segment part 5.             Intra module refs:   pModuleHeaders

    *************************************************************************

  FILE NAME : C:\Documents and Settings\Lane Kolbly\My Documents\GitHub\blindnxt\AT91SAM7S256\SAM7S256\Lib\dl4tptinl8n.r79
  LIBRARY MODULE, NAME : ?segment_init

  SEGMENTS IN THE MODULE
  ======================
ICODE
  Relative segment, address: 00100204 - 00100257 (0x54 bytes), align: 2
  Segment part 2.
           ENTRY                   ADDRESS         REF BY
           =====                   =======         ======
           __segment_init          00100205        Segment part 3 (?RESET_init)
               stack 1 = 00000000 ( 00000014 )

    -------------------------------------------------------------------------
  LIBRARY MODULE, NAME : ?div

  SEGMENTS IN THE MODULE
  ======================
CODE
  Relative segment, address: 00115A64 - 00115A8D (0x2a bytes), align: 2
  Segment part 3.
           ENTRY                   ADDRESS         REF BY
           =====                   =======         ======
           div                     00115A65        _GenldDefault (?xprintffull)
               stack 1 = 00000000 ( 00000010 )

    -------------------------------------------------------------------------
  LIBRARY MODULE, NAME : ?errno

  SEGMENTS IN THE MODULE
  ======================
DATA_Z
  Relative segment, address: 0000BA38 - 0000BA3B (0x4 bytes), align: 2
  Segment part 2.
           ENTRY                   ADDRESS         REF BY
           =====                   =======         ======
           errno                   0000BA38        _Dtento (?xdtento)
                                                   _Stoll (?xstoll)
                                                   _Stoul (?xstoul)
                                                   _Stoull (?xstoull)
                                                   sqrt (?sqrt)

    -------------------------------------------------------------------------
  LIBRARY MODULE, NAME : ?memchr

  SEGMENTS IN THE MODULE
  ======================
CODE
  Relative segment, address: 00115A90 - 00115AAB (0x1c bytes), align: 2
  Segment part 5.
           ENTRY                   ADDRESS         REF BY
           =====                   =======         ======
           _Memchr                 00115A91        _GetstrDefault (?xscanffull)
                                                   _Printf (?xprintffull)
                                                   _Stoul (?xstoul)
                                                   _Stoull (?xstoull)
               stack 1 = 00000000 ( 00000004 )

    -------------------------------------------------------------------------
  LIBRARY MODULE, NAME : ?memcmp

  SEGMENTS IN THE MODULE
  ======================
CODE
  Relative segment, address: 00115AAC - 00115ADB (0x30 bytes), align: 2
  Segment part 3.
           ENTRY                   ADDRESS         REF BY
           =====                   =======         ======
           memcmp                  00115AAD        cCommCheckBdaddr (c_comm)
                                                   dLoaderCheckName (d_loader)
               stack 1 = 00000000 ( 0000000C )

    -------------------------------------------------------------------------
  LIBRARY MODULE, NAME : ?memcpy

  SEGMENTS IN THE MODULE
  ======================
CODE
  Relative segment, address: 00115ADC - 00115AF5 (0x1a bytes), align: 2
  Segment part 3.
           ENTRY                   ADDRESS         REF BY
           =====                   =======         ======
           memcpy                  00115ADD        cCmdHandleRemoteCommands (c_cmd)
                                                   cCmdLSRead (c_cmd)
                                                   cCmdLSWrite (c_cmd)
                                                   cCmdWrapIOMapRead (c_cmd)
                                                   cCmdWrapIOMapWrite (c_cmd)
                                                   cCommCopyBdaddr (c_comm)
                                                   cCommInsertDevice (c_comm)
                                                   cCommInterpreteCmd (c_comm)
                                                   cCommReceivedBtData (c_comm)
                                                   cCommReq (c_comm)
                                                   cCommUpdateBt (c_comm)
                                                   cDisplayUpdateIcon (c_display)
                                                   cDisplayUpdateScreen (c_display)
                                                   dBtSend (d_bt)
                                                   dBtSendBtCmd (d_bt)
                                                   dBtSendMsg (d_bt)
                                                   dIOCtrlInit (d_ioctrl)
                                                   dIOCtrlTransfer (d_ioctrl)
                                                   dLoaderCloseHandle (d_loader)
                                                   dLoaderCropDatafile (d_loader)
                                                   dLoaderFlashFileHeader (d_loader)
                                                   dLoaderOpenAppend (d_loader)
               stack 1 = 00000000 ( 00000008 )

    -------------------------------------------------------------------------
  LIBRARY MODULE, NAME : ?memmove

  SEGMENTS IN THE MODULE
  ======================
CODE
  Relative segment, address: 00115AF8 - 00115B33 (0x3c bytes), align: 2
  Segment part 3.
           ENTRY                   ADDRESS         REF BY
           =====                   =======         ======
           memmove                 00115AF9        cCmdActivateProgram (c_cmd)
                                                   cCmdDSCompact (c_cmd)
                                                   cCmdDVArrayAlloc (c_cmd)
                                                   cCmdDatalogRead (c_cmd)
                                                   cCmdDatalogWrite (c_cmd)
                                                   cCmdFlattenToByteArray (c_cmd)
                                                   cCmdGrowDopeVectorArray (c_cmd)
                                                   cCmdInflateDSDefaults (c_cmd)
                                                   cCmdInterpOther (c_cmd)
                                                   cCmdInterpPolyUnop2 (c_cmd)
                                                   cCmdInterpUnop2 (c_cmd)
                                                   cCmdMessageRead (c_cmd)
                                                   cCmdMessageWrite (c_cmd)
                                                   cCmdMove (c_cmd)
                                                   cCmdUnflattenFromByteArray (c_cmd)
               stack 1 = 00000000 ( 00000010 )

    -------------------------------------------------------------------------
  LIBRARY MODULE, NAME : ?memset

  SEGMENTS IN THE MODULE
  ======================
CODE
  Relative segment, address: 00115B34 - 00115B45 (0x12 bytes), align: 2
  Segment part 3.
           ENTRY                   ADDRESS         REF BY
           =====                   =======         ======
           memset                  00115B35        ?Subroutine22 (c_display)
                                                   cCmdDSCompact (c_cmd)
                                                   cCmdDeactivateProgram (c_cmd)
                                                   cCmdHandleRemoteCommands (c_cmd)
                                                   cCmdInflateDSDefaults (c_cmd)
                                                   cCmdInit (c_cmd)
                                                   cCmdWrapDrawPicture (c_cmd)
                                                   cCmdWrapFileClose (c_cmd)
                                                   cCommBtCmdInterpreter (c_comm)
                                                   cCommClrConnTable (c_comm)
                                                   cCommInsertDevice (c_comm)
                                                   cCommInterpreteCmd (c_comm)
                                                   cCommsBtReset (c_comm)
                                                   cDisplayEraseScreen (c_display)
                                                   cDisplayUpdateIcon (c_display)
                                                   cDisplayUpdateMenuIcon (c_display)
                                                   cInputCtrl (c_input)
                                                   cInputInit (c_input)
                                                   dLoaderAllocateWriteBuffer (d_loader)
                                                   dLoaderCreateFileHeader (d_loader)
                                                   dLoaderDeleteAllFiles (d_loader)
                                                   dLoaderInsertPtrTable (d_loader)
                                                   dLoaderUpdateSectorTable (d_loader)
                                                   dLoaderWriteData (d_loader)
               stack 1 = 00000000 ( 00000004 )

    -------------------------------------------------------------------------
  LIBRARY MODULE, NAME : ?rand

  SEGMENTS IN THE MODULE
  ======================
DATA_I
  Relative segment, address: 000007C0 - 000007D3 (0x14 bytes), align: 2
  Segment part 2.             Intra module refs:   rand
           ENTRY                   ADDRESS         REF BY
           =====                   =======         ======
           _Randinit               000007C0        srand (?srand)
           _Randseed               000007C8        srand (?srand)
           _Tls_setup__Randinit    000007C4        srand (?srand)
           _Tls_setup__Randseed    000007CC        srand (?srand)
    -------------------------------------------------------------------------
DATA_Z
  Relative segment, address: 0000BA3C - 0000BABB (0x80 bytes), align: 2
  Segment part 4.             Intra module refs:   rand
    -------------------------------------------------------------------------
CODE
  Relative segment, address: 00115B48 - 00115BC7 (0x80 bytes), align: 2
  Segment part 6.
           ENTRY                   ADDRESS         REF BY
           =====                   =======         ======
           rand                    00115B49        cCmdWrapRandomNumber (c_cmd)
               stack 1 = 00000000 ( 00000010 )
    -------------------------------------------------------------------------
CODE
  Relative segment, address: 00115BC8 - 00115BC9 (0x2 bytes), align: 2
  Segment part 8.             Intra module refs:   rand
           ENTRY                   ADDRESS         REF BY
           =====                   =======         ======
           ??rT_BX_R0              00115BC9 
    -------------------------------------------------------------------------
DATA_ID
  Relative segment, address: 00119F6C - 00119F7F (0x14 bytes), align: 2
  Segment part 3.             Intra module refs:   Segment part 2

    -------------------------------------------------------------------------
  LIBRARY MODULE, NAME : ?sprintf

  SEGMENTS IN THE MODULE
  ======================
CODE
  Relative segment, address: 00115BCC - 00115C03 (0x38 bytes), align: 2
  Segment part 3.
           ENTRY                   ADDRESS         REF BY
           =====                   =======         ======
           sprintf                 00115BCD        ?Subroutine80 (c_ui)
                                                   GetARMBuild (c_ui)
                                                   GetBC4Address (c_ui)
                                                   cCmdInterpUnop2 (c_cmd)
                                                   cCmdWrapDrawPicture (c_cmd)
                                                   cUiBTCommand (c_ui)
                                                   cUiBTConnectRequest (c_ui)
                                                   cUiBtConnect (c_ui)
                                                   cUiBtSearch (c_ui)
                                                   cUiCtrl (c_ui)
                                                   cUiDataLogging (c_ui)
                                                   cUiFileRun (c_ui)
                                                   cUiFilesDelete (c_ui)
                                                   cUiFindNameForFileNo (c_ui)
                                                   cUiFindNoOfFiles (c_ui)
                                                   cUiNVRead (c_ui)
                                                   cUiNVWrite (c_ui)
                                                   cUiOnBrickProgramming (c_ui)
                                                   cUiPowerOffTime (c_ui)
                                                   cUiPrintSensorInDisplayBuffer (c_ui)
                                                   cUiReadButtons (c_ui)
                                                   cUiVolume (c_ui)
               stack 1 = 00000000 ( 00000010 )

    -------------------------------------------------------------------------
  LIBRARY MODULE, NAME : ?sqrt

  SEGMENTS IN THE MODULE
  ======================
CODE
  Relative segment, address: 00115C04 - 00115C83 (0x80 bytes), align: 2
  Segment part 2.             Intra module refs:   _Dtento (?xdtento)
                                                   _LdtobDefault (?xprintffull)
                                                   sqrt
           ENTRY                   ADDRESS         REF BY
           =====                   =======         ======
           _Dunscale               00115C05 
               stack 1 = 00000000 ( 00000010 )
    -------------------------------------------------------------------------
CODE
  Relative segment, address: 00115C84 - 00115DBF (0x13c bytes), align: 2
  Segment part 4.
           ENTRY                   ADDRESS         REF BY
           =====                   =======         ======
           sqrt                    00115C85        cCmdUnop2Flt (c_cmd)
               stack 1 = 00000000 ( 00000028 )

    -------------------------------------------------------------------------
  LIBRARY MODULE, NAME : ?srand

  SEGMENTS IN THE MODULE
  ======================
CODE
  Relative segment, address: 00115DC0 - 00115DFB (0x3c bytes), align: 2
  Segment part 3.
           ENTRY                   ADDRESS         REF BY
           =====                   =======         ======
           srand                   00115DC1        cCmdWrapRandomNumber (c_cmd)
               stack 1 = 00000000 ( 00000008 )
    -------------------------------------------------------------------------
CODE
  Relative segment, address: 00115DFC - 00115DFD (0x2 bytes), align: 2
  Segment part 4.             Intra module refs:   srand
           ENTRY                   ADDRESS         REF BY
           =====                   =======         ======
           ??rT_BX_R1              00115DFD 
    -------------------------------------------------------------------------
CODE
  Relative segment, address: 00115E00 - 00115E01 (0x2 bytes), align: 2
  Segment part 5.             Intra module refs:   srand
           ENTRY                   ADDRESS         REF BY
           =====                   =======         ======
           ??rT_BX_R2              00115E01 

    -------------------------------------------------------------------------
  LIBRARY MODULE, NAME : ?sscanf

  SEGMENTS IN THE MODULE
  ======================
CODE
  Relative segment, address: 00115E04 - 00115E27 (0x24 bytes), align: 2
  Segment part 3.
           ENTRY                   ADDRESS         REF BY
           =====                   =======         ======
           sscanf                  00115E05        cCmdInterpOther (c_cmd)
               stack 1 = 00000000 ( 00000010 )

    -------------------------------------------------------------------------
  LIBRARY MODULE, NAME : ?strchr

  SEGMENTS IN THE MODULE
  ======================
CODE
  Relative segment, address: 00115E28 - 00115E35 (0xe bytes), align: 2
  Segment part 3.
           ENTRY                   ADDRESS         REF BY
           =====                   =======         ======
           strchr                  00115E29        _Strstr (?strstr)
               stack 1 = 00000000 ( 00000008 )
    -------------------------------------------------------------------------
CODE
  Relative segment, address: 00115E38 - 00115E4F (0x18 bytes), align: 2
  Segment part 5.             Intra module refs:   strchr
           ENTRY                   ADDRESS         REF BY
           =====                   =======         ======
           _Strchr                 00115E39        _GetstrDefault (?xscanffull)
                                                   _Printf (?xprintffull)
                                                   _Scanf (?xscanffull)
               stack 1 = 00000000 ( 00000004 )

    -------------------------------------------------------------------------
  LIBRARY MODULE, NAME : ?strcmp

  SEGMENTS IN THE MODULE
  ======================
CODE
  Relative segment, address: 00115E50 - 00115E79 (0x2a bytes), align: 2
  Segment part 3.
           ENTRY                   ADDRESS         REF BY
           =====                   =======         ======
           strcmp                  00115E51        GetARMBuild (c_ui)
                                                   cCmdGetCalibrationIndex (c_cmd)
                                                   cCmdWrapFileResolveHandle (c_cmd)
                                                   cCommSearchBTDevTableForName (c_comm)
                                                   cCommUpdateBt (c_comm)
                                                   cUiFindFileType (c_ui)
                                                   dLoaderCheckName (d_loader)
               stack 1 = 00000000 ( 00000004 )

    -------------------------------------------------------------------------
  LIBRARY MODULE, NAME : ?strcpy

  SEGMENTS IN THE MODULE
  ======================
CODE
  Relative segment, address: 00115E7C - 00115E8D (0x12 bytes), align: 2
  Segment part 3.
           ENTRY                   ADDRESS         REF BY
           =====                   =======         ======
           strcpy                  00115E7D        ?Subroutine171 (c_cmd)
                                                   cCmdInterpUnop2 (c_cmd)
                                                   cCmdUpdateCalibrationCache (c_cmd)
                                                   cCmdWrapFileOpenRead (c_cmd)
                                                   cCmdWrapListFiles (c_cmd)
                                                   cCommCtrl (c_comm)
                                                   cUiBTConnectRequest (c_ui)
                                                   cUiBtConnect (c_ui)
                                                   cUiCtrl (c_ui)
                                                   cUiFileRun (c_ui)
                                                   cUiOnBrickProgramming (c_ui)
                                                   dLoaderInsertSearchStr (d_loader)
               stack 1 = 00000000 ( 00000004 )

    -------------------------------------------------------------------------
  LIBRARY MODULE, NAME : ?strlen

  SEGMENTS IN THE MODULE
  ======================
CODE
  Relative segment, address: 00115E90 - 00115EA1 (0x12 bytes), align: 2
  Segment part 3.
           ENTRY                   ADDRESS         REF BY
           =====                   =======         ======
           strlen                  00115E91        cCmdLoadCalibrationFiles (c_cmd)
                                                   cCmdWrapListFiles (c_cmd)
                                                   dLoaderCheckName (d_loader)
                                                   dLoaderFind (d_loader)
                                                   dLoaderInsertSearchStr (d_loader)
               stack 1 = 00000000 ( 00000004 )

    -------------------------------------------------------------------------
  LIBRARY MODULE, NAME : ?strncmp

  SEGMENTS IN THE MODULE
  ======================
CODE
  Relative segment, address: 00115EA4 - 00115ED7 (0x34 bytes), align: 2
  Segment part 3.
           ENTRY                   ADDRESS         REF BY
           =====                   =======         ======
           strncmp                 00115EA5        cCmdReadFileHeader (c_cmd)
               stack 1 = 00000000 ( 0000000C )

    -------------------------------------------------------------------------
  LIBRARY MODULE, NAME : ?strncpy

  SEGMENTS IN THE MODULE
  ======================
CODE
  Relative segment, address: 00115ED8 - 00115F03 (0x2c bytes), align: 2
  Segment part 3.
           ENTRY                   ADDRESS         REF BY
           =====                   =======         ======
           strncpy                 00115ED9        cCmdActivateProgram (c_cmd)
                                                   cCmdHandleRemoteCommands (c_cmd)
                                                   cCmdInit (c_cmd)
                                                   cCmdWrapSoundPlayFile (c_cmd)
               stack 1 = 00000000 ( 00000008 )

    -------------------------------------------------------------------------
  LIBRARY MODULE, NAME : ?strstr

  SEGMENTS IN THE MODULE
  ======================
CODE
  Relative segment, address: 00115F04 - 00115F3B (0x38 bytes), align: 2
  Segment part 5.
           ENTRY                   ADDRESS         REF BY
           =====                   =======         ======
           _Strstr                 00115F05        cCommCheckSysFileType (c_comm)
                                                   dLoaderCheckName (d_loader)
                                                   dLoaderInsertSearchStr (d_loader)
               stack 1 = 00000000 ( 00000010 )

    -------------------------------------------------------------------------
  LIBRARY MODULE, NAME : ?xdnorm

  SEGMENTS IN THE MODULE
  ======================
CODE
  Relative segment, address: 00115F3C - 00115FFF (0xc4 bytes), align: 2
  Segment part 3.
           ENTRY                   ADDRESS         REF BY
           =====                   =======         ======
           _Dnorm                  00115F3D        _Dscale (?xdscale)
                                                   _Dunscale (?sqrt)
               stack 1 = 00000000 ( 0000000C )

    -------------------------------------------------------------------------
  LIBRARY MODULE, NAME : ?xdscale

  SEGMENTS IN THE MODULE
  ======================
CODE
  Relative segment, address: 00116000 - 00116127 (0x128 bytes), align: 2
  Segment part 3.
           ENTRY                   ADDRESS         REF BY
           =====                   =======         ======
           _Dscale                 00116001        _Dtento (?xdtento)
                                                   _GetfloatDefault (?xscanffull)
                                                   _LdtobDefault (?xprintffull)
                                                   sqrt (?sqrt)
               stack 1 = 00000000 ( 00000010 )

    -------------------------------------------------------------------------
  LIBRARY MODULE, NAME : ?xdtento

  SEGMENTS IN THE MODULE
  ======================
DATA_C
  Relative segment, address: 00120524 - 0012056B (0x48 bytes), align: 2
  Segment part 2.             Intra module refs:   _Dtento
    -------------------------------------------------------------------------
CODE
  Relative segment, address: 00116128 - 001162AF (0x188 bytes), align: 2
  Segment part 5.
           ENTRY                   ADDRESS         REF BY
           =====                   =======         ======
           _Dtento                 00116129        _Stold (?xstold)
               stack 1 = 00000000 ( 00000020 )

    -------------------------------------------------------------------------
  LIBRARY MODULE, NAME : ?xfloat

  SEGMENTS IN THE MODULE
  ======================
DATA_C
  Relative segment, address: 0012056C - 0012059B (0x30 bytes), align: 2
  Segment part 3.
           ENTRY                   ADDRESS         REF BY
           =====                   =======         ======
           _Dbl                    0012056C        _LdtobDefault (?xprintffull)

    -------------------------------------------------------------------------
  LIBRARY MODULE, NAME : ?xprintffull

  SEGMENTS IN THE MODULE
  ======================
CODE
  Relative segment, address: 001162B0 - 001169BD (0x70e bytes), align: 2
  Segment part 9.
           ENTRY                   ADDRESS         REF BY
           =====                   =======         ======
           _Printf                 001162B1        sprintf (?sprintf)
               stack 1 = 00000000 ( 00000098 )
    -------------------------------------------------------------------------
CODE
  Relative segment, address: 001169C0 - 00116AE3 (0x124 bytes), align: 2
  Segment part 11.            Intra module refs:   _Printf
           LOCAL                   ADDRESS         
           =====                   =======         
           _LitobDefault           001169C1 
               stack 1 = 00000000 ( 00000024 )
    -------------------------------------------------------------------------
CODE
  Relative segment, address: 00116AE4 - 00116F7F (0x49c bytes), align: 2
  Segment part 13.            Intra module refs:   _Printf
           LOCAL                   ADDRESS         
           =====                   =======         
           _LdtobDefault           00116AE5 
               stack 1 = 00000000 ( 0000006C )
    -------------------------------------------------------------------------
CODE
  Relative segment, address: 00116F80 - 00117223 (0x2a4 bytes), align: 2
  Segment part 15.            Intra module refs:   _LdtobDefault
           LOCAL                   ADDRESS         
           =====                   =======         
           _GenldDefault           00116F81 
               stack 1 = 00000000 ( 00000038 )
    -------------------------------------------------------------------------
CODE
  Relative segment, address: 00117224 - 0011725D (0x3a bytes), align: 2
  Segment part 17.            Intra module refs:   _Printf
           LOCAL                   ADDRESS         
           =====                   =======         
           _PutcharsDefault        00117225 
               stack 1 = 00000000 ( 00000018 )
    -------------------------------------------------------------------------
DATA_C
  Relative segment, address: 0012059C - 001205A3 (0x8 bytes), align: 2
  Segment part 2.             Intra module refs:   _Printf

    -------------------------------------------------------------------------
  LIBRARY MODULE, NAME : ?xscanffull

  SEGMENTS IN THE MODULE
  ======================
CODE
  Relative segment, address: 00117260 - 00117291 (0x32 bytes), align: 2
  Segment part 4.             Intra module refs:   _GetfloatDefault
                                                   _GetintDefault
                                                   _GetstrDefault
           LOCAL                   ADDRESS         
           =====                   =======         
           _GetN                   00117261 
               stack 1 = 00000000 ( 00000008 )
    -------------------------------------------------------------------------
CODE
  Relative segment, address: 00117294 - 00117437 (0x1a4 bytes), align: 2
  Segment part 6.
           ENTRY                   ADDRESS         REF BY
           =====                   =======         ======
           _Scanf                  00117295        sscanf (?sscanf)
               stack 1 = 00000000 ( 00000038 )
    -------------------------------------------------------------------------
CODE
  Relative segment, address: 00117438 - 001175C5 (0x18e bytes), align: 2
  Segment part 8.             Intra module refs:   _Scanf
           LOCAL                   ADDRESS         
           =====                   =======         
           _GetfldDefault          00117439 
               stack 1 = 00000000 ( 00000010 )
    -------------------------------------------------------------------------
CODE
  Relative segment, address: 001175C8 - 001177AD (0x1e6 bytes), align: 2
  Segment part 10.            Intra module refs:   _GetfldDefault
           LOCAL                   ADDRESS         
           =====                   =======         
           _GetstrDefault          001175C9 
               stack 1 = 00000000 ( 00000028 )
    -------------------------------------------------------------------------
CODE
  Relative segment, address: 001177B0 - 001177B3 (0x4 bytes), align: 2
  Segment part 11.            Intra module refs:   _GetstrDefault
    -------------------------------------------------------------------------
CODE
  Relative segment, address: 001177B4 - 00117A5F (0x2ac bytes), align: 2
  Segment part 13.            Intra module refs:   _GetfldDefault
           LOCAL                   ADDRESS         
           =====                   =======         
           _GetintDefault          001177B5 
               stack 1 = 00000000 ( 00000038 )
    -------------------------------------------------------------------------
CODE
  Relative segment, address: 00117A60 - 00117A63 (0x4 bytes), align: 2
  Segment part 14.            Intra module refs:   _GetintDefault
    -------------------------------------------------------------------------
CODE
  Relative segment, address: 00117A64 - 00117EF1 (0x48e bytes), align: 2
  Segment part 16.            Intra module refs:   _GetfldDefault
           LOCAL                   ADDRESS         
           =====                   =======         
           _GetfloatDefault        00117A65 
               stack 1 = 00000000 ( 00000060 )
    -------------------------------------------------------------------------
CODE
  Relative segment, address: 00117EF4 - 00117EF5 (0x2 bytes), align: 2
  Segment part 17.            Intra module refs:   _GetN
                                                   _GetfldDefault
                                                   _GetintDefault
                                                   _GetstrDefault
                                                   _Scanf
           ENTRY                   ADDRESS         REF BY
           =====                   =======         ======
           ??rT_BX_R3              00117EF5 
    -------------------------------------------------------------------------
CODE
  Relative segment, address: 00117EF8 - 00117EF9 (0x2 bytes), align: 2
  Segment part 18.            Intra module refs:   _GetfloatDefault
                                                   _Scanf
           ENTRY                   ADDRESS         REF BY
           =====                   =======         ======
           ??rT_BX_R7              00117EF9 
    -------------------------------------------------------------------------
CODE
  Relative segment, address: 00117EFC - 00117EFD (0x2 bytes), align: 2
  Segment part 19.            Intra module refs:   _GetfloatDefault
                                                   _Scanf
           ENTRY                   ADDRESS         REF BY
           =====                   =======         ======
           ??rT_BX_R6              00117EFD 
    -------------------------------------------------------------------------
CODE
  Relative segment, address: 00117F00 - 00117F01 (0x2 bytes), align: 2
  Segment part 20.            Intra module refs:   _GetfldDefault
                                                   _Scanf
           ENTRY                   ADDRESS         REF BY
           =====                   =======         ======
           ??rT_BX_R5              00117F01 
    -------------------------------------------------------------------------
CODE
  Relative segment, address: 00117F04 - 00117F05 (0x2 bytes), align: 2
  Segment part 26.            Intra module refs:   _GetfloatDefault
           ENTRY                   ADDRESS         REF BY
           =====                   =======         ======
           ??rT_BX_R4              00117F05 
    -------------------------------------------------------------------------
DATA_C
  Relative segment, address: 001205A4 - 001205B3 (0x10 bytes), align: 2
  Segment part 2.             Intra module refs:   _Scanf

    -------------------------------------------------------------------------
  LIBRARY MODULE, NAME : ?xsprout

  SEGMENTS IN THE MODULE
  ======================
CODE
  Relative segment, address: 00117F08 - 00117F13 (0xc bytes), align: 2
  Segment part 3.
           ENTRY                   ADDRESS         REF BY
           =====                   =======         ======
           _SProut                 00117F09        sprintf (?sprintf)

    -------------------------------------------------------------------------
  LIBRARY MODULE, NAME : ?xsscin

  SEGMENTS IN THE MODULE
  ======================
CODE
  Relative segment, address: 00117F14 - 00117F39 (0x26 bytes), align: 2
  Segment part 3.
           ENTRY                   ADDRESS         REF BY
           =====                   =======         ======
           _SScin                  00117F15        sscanf (?sscanf)
               stack 1 = 00000000 ( 00000004 )

    -------------------------------------------------------------------------
  LIBRARY MODULE, NAME : ?xstoflt

  SEGMENTS IN THE MODULE
  ======================
DATA_C
  Relative segment, address: 001205B4 - 001205D3 (0x20 bytes), align: 2
  Segment part 2.             Intra module refs:   _Stoflt
    -------------------------------------------------------------------------
CODE
  Relative segment, address: 00117F3C - 001180CF (0x194 bytes), align: 2
  Segment part 4.
           ENTRY                   ADDRESS         REF BY
           =====                   =======         ======
           _Stoflt                 00117F3D        _Stold (?xstold)
               stack 1 = 00000000 ( 00000020 )

    -------------------------------------------------------------------------
  LIBRARY MODULE, NAME : ?xstold

  SEGMENTS IN THE MODULE
  ======================
DATA_C
  Relative segment, address: 001205D4 - 001205E3 (0x10 bytes), align: 2
  Segment part 2.             Intra module refs:   _Stold
    -------------------------------------------------------------------------
CODE
  Relative segment, address: 001180D0 - 001181A3 (0xd4 bytes), align: 2
  Segment part 4.
           ENTRY                   ADDRESS         REF BY
           =====                   =======         ======
           _Stold                  001180D1        _GetfloatDefault (?xscanffull)
               stack 1 = 00000000 ( 0000003C )

    -------------------------------------------------------------------------
  LIBRARY MODULE, NAME : ?xstoll

  SEGMENTS IN THE MODULE
  ======================
CODE
  Relative segment, address: 001181A4 - 00118253 (0xb0 bytes), align: 2
  Segment part 3.
           ENTRY                   ADDRESS         REF BY
           =====                   =======         ======
           _Stoll                  001181A5        _GetintDefault (?xscanffull)
               stack 1 = 00000000 ( 00000018 )

    -------------------------------------------------------------------------
  LIBRARY MODULE, NAME : ?xstopfx

  SEGMENTS IN THE MODULE
  ======================
CODE
  Relative segment, address: 00118254 - 0011834D (0xfa bytes), align: 2
  Segment part 3.
           ENTRY                   ADDRESS         REF BY
           =====                   =======         ======
           _Stopfx                 00118255        _Stold (?xstold)
               stack 1 = 00000000 ( 00000010 )

    -------------------------------------------------------------------------
  LIBRARY MODULE, NAME : ?xstoul

  SEGMENTS IN THE MODULE
  ======================
DATA_C
  Relative segment, address: 001205E4 - 00120630 (0x4d bytes), align: 2
  Segment part 2.             Intra module refs:   _Stoul
    -------------------------------------------------------------------------
CODE
  Relative segment, address: 00118350 - 00118477 (0x128 bytes), align: 2
  Segment part 4.
           ENTRY                   ADDRESS         REF BY
           =====                   =======         ======
           _Stoul                  00118351        GetARMBuild (c_ui)
               stack 1 = 00000000 ( 00000028 )

    -------------------------------------------------------------------------
  LIBRARY MODULE, NAME : ?xstoull

  SEGMENTS IN THE MODULE
  ======================
DATA_C
  Relative segment, address: 00120634 - 00120680 (0x4d bytes), align: 2
  Segment part 2.             Intra module refs:   _Stoull
    -------------------------------------------------------------------------
CODE
  Relative segment, address: 00118478 - 001185FF (0x188 bytes), align: 2
  Segment part 4.
           ENTRY                   ADDRESS         REF BY
           =====                   =======         ======
           _Stoull                 00118479        _GetintDefault (?xscanffull)
                                                   _Stoll (?xstoll)
               stack 1 = 00000000 ( 0000003C )

    -------------------------------------------------------------------------
  LIBRARY MODULE, NAME : ?xvalues

  SEGMENTS IN THE MODULE
  ======================
DATA_C
  Relative segment, address: 00120684 - 0012068B (0x8 bytes), align: 2
  Segment part 5.
           ENTRY                   ADDRESS         REF BY
           =====                   =======         ======
           _Inf                    00120684        _Dscale (?xdscale)
                                                   _Stold (?xstold)
    -------------------------------------------------------------------------
DATA_C
  Relative segment, address: 0012068C - 00120693 (0x8 bytes), align: 2
  Segment part 6.
           ENTRY                   ADDRESS         REF BY
           =====                   =======         ======
           _Nan                    0012068C        _Stold (?xstold)
                                                   sqrt (?sqrt)

    -------------------------------------------------------------------------
  LIBRARY MODULE, NAME : ?div_module

  SEGMENTS IN THE MODULE
  ======================
CODE
  Relative segment, address: 00118600 - 00118603 (0x4 bytes), align: 2
  Segment part 4.
           ENTRY                   ADDRESS         REF BY
           =====                   =======         ======
           ??divu32_t              00118601        SoundFreq (d_sound)
                                                   SoundSampleRate (d_sound)
                                                   _LdtobDefault (?xprintffull)
                                                   _Stoul (?xstoul)
                                                   cCmdBinop (c_cmd)
                                                   cCmdHandleRemoteCommands (c_cmd)
                                                   cCmdWrapSetSleepTimeout (c_cmd)
                                                   cInputCalcSensorValue (c_input)
    -------------------------------------------------------------------------
CODE
  Relative segment, address: 00118604 - 0011860F (0xc bytes), align: 2
  Segment part 5.             Intra module refs:   ??divu32_t
           ENTRY                   ADDRESS         REF BY
           =====                   =======         ======
           ??divu32_a              00118604 
    -------------------------------------------------------------------------
CODE
  Relative segment, address: 00118610 - 00118613 (0x4 bytes), align: 2
  Segment part 10.
           ENTRY                   ADDRESS         REF BY
           =====                   =======         ======
           ??div32_t               00118611        _LdtobDefault (?xprintffull)
                                                   _Stoflt (?xstoflt)
                                                   cCmdBinop (c_cmd)
                                                   cCmdBinopFlt (c_cmd)
                                                   cCmdCalcArrayElemSize (c_cmd)
                                                   cCmdComputeCalibratedValue (c_cmd)
                                                   cCmdDatalogRead (c_cmd)
                                                   cCmdDatalogWrite (c_cmd)
                                                   cCmdMessageRead (c_cmd)
                                                   cCmdMessageWrite (c_cmd)
                                                   cCmdResolveValue (c_cmd)
                                                   cDisplayUpdateIcon (c_display)
                                                   cInputCalcFullScale (c_input)
                                                   cInputCalcSensorValue (c_input)
                                                   cInputCalcSensorValues (c_input)
                                                   dButtonRead (d_button)
                                                   dOutputCalculateMotorPosition (d_output)
                                                   dOutputRampDownFunction (d_output)
                                                   dOutputRampUpFunction (d_output)
                                                   dOutputSyncMotorPosition (d_output)
                                                   div (?div)
    -------------------------------------------------------------------------
CODE
  Relative segment, address: 00118614 - 0011862B (0x18 bytes), align: 2
  Segment part 11.            Intra module refs:   ??div32_t
           ENTRY                   ADDRESS         REF BY
           =====                   =======         ======
           ??div32_a               00118614 
    -------------------------------------------------------------------------
CODE
  Relative segment, address: 0011862C - 00118703 (0xd8 bytes), align: 2
  Segment part 12.            Intra module refs:   ??div32_a
                                                   ??divu32_a

    -------------------------------------------------------------------------
  LIBRARY MODULE, NAME : ?ll_mul

  SEGMENTS IN THE MODULE
  ======================
CODE
  Relative segment, address: 00118704 - 00118727 (0x24 bytes), align: 2
  Segment part 0.
           ENTRY                   ADDRESS         REF BY
           =====                   =======         ======
           ??llmul_t               00118705        _Stoull (?xstoull)

    -------------------------------------------------------------------------
  LIBRARY MODULE, NAME : ?divu64

  SEGMENTS IN THE MODULE
  ======================
CODE
  Relative segment, address: 00118728 - 0011872B (0x4 bytes), align: 2
  Segment part 0.
           ENTRY                   ADDRESS         REF BY
           =====                   =======         ======
           ??divu64_t              00118729        _LitobDefault (?xprintffull)
                                                   _Stoull (?xstoull)
    -------------------------------------------------------------------------
CODE
  Relative segment, address: 0011872C - 001187B3 (0x88 bytes), align: 2
  Segment part 1.             Intra module refs:   ??divu64_t
           ENTRY                   ADDRESS         REF BY
           =====                   =======         ======
           ??divu64_a              0011872C 

    -------------------------------------------------------------------------
  LIBRARY MODULE, NAME : ?doubleSoftLIb

  SEGMENTS IN THE MODULE
  ======================
CODE
  Relative segment, address: 001187B4 - 001187EF (0x3c bytes), align: 2
  Segment part 3.             Intra module refs:   __dAdd
                                                   __dDiv
                                                   __dMul
    -------------------------------------------------------------------------
CODE
  Relative segment, address: 001187F0 - 00118A1B (0x22c bytes), align: 2
  Segment part 4.             Intra module refs:   Segment part 33
                                                   Segment part 5
                                                   __dAdd
                                                   __dDiv
                                                   __dMul
                                                   __longToDouble
                                                   __ulongToDouble
    -------------------------------------------------------------------------
CODE
  Relative segment, address: 00118A1C - 00118A63 (0x48 bytes), align: 2
  Segment part 5.             Intra module refs:   __doubleToFloat
    -------------------------------------------------------------------------
CODE
  Relative segment, address: 00118A64 - 00118A67 (0x4 bytes), align: 2
  Segment part 7.
           ENTRY                   ADDRESS         REF BY
           =====                   =======         ======
           __dSub::??rT            00118A65 
    -------------------------------------------------------------------------
CODE
  Relative segment, address: 00118A68 - 00118A6F (0x8 bytes), align: 2
  Segment part 8.             Intra module refs:   __dSub::??rT
           ENTRY                   ADDRESS         REF BY
           =====                   =======         ======
           __dSub                  00118A68        _LdtobDefault (?xprintffull)
    -------------------------------------------------------------------------
CODE
  Relative segment, address: 00118A70 - 00118A73 (0x4 bytes), align: 2
  Segment part 9.
           ENTRY                   ADDRESS         REF BY
           =====                   =======         ======
           __dAdd::??rT            00118A71 
    -------------------------------------------------------------------------
CODE
  Relative segment, address: 00118A74 - 00118C03 (0x190 bytes), align: 2
  Segment part 10.            Intra module refs:   __dAdd::??rT
                                                   __dSub
           ENTRY                   ADDRESS         REF BY
           =====                   =======         ======
           __dAdd                  00118A74        _Stold (?xstold)
                                                   cCmdGetFloat (c_cmd)
                                                   sqrt (?sqrt)
    -------------------------------------------------------------------------
CODE
  Relative segment, address: 00118C04 - 00118C07 (0x4 bytes), align: 2
  Segment part 11.
           ENTRY                   ADDRESS         REF BY
           =====                   =======         ======
           __dMul::??rT            00118C05 
    -------------------------------------------------------------------------
CODE
  Relative segment, address: 00118C08 - 00118CEB (0xe4 bytes), align: 2
  Segment part 12.            Intra module refs:   __dDiv
                                                   __dMul::??rT
           ENTRY                   ADDRESS         REF BY
           =====                   =======         ======
           __dMul                  00118C08        _Dtento (?xdtento)
                                                   _LdtobDefault (?xprintffull)
                                                   _Stold (?xstold)
                                                   cUiUpdateStatus (c_ui)
                                                   sqrt (?sqrt)
    -------------------------------------------------------------------------
CODE
  Relative segment, address: 00118CEC - 00118CEF (0x4 bytes), align: 2
  Segment part 13.
           ENTRY                   ADDRESS         REF BY
           =====                   =======         ======
           __dDiv::??rT            00118CED 
    -------------------------------------------------------------------------
CODE
  Relative segment, address: 00118CF0 - 00118DF7 (0x108 bytes), align: 2
  Segment part 14.            Intra module refs:   __dDiv::??rT
           ENTRY                   ADDRESS         REF BY
           =====                   =======         ======
           __dDiv                  00118CF0        _Dtento (?xdtento)
                                                   _LdtobDefault (?xprintffull)
                                                   cUiUpdateSensor (c_ui)
                                                   sqrt (?sqrt)
    -------------------------------------------------------------------------
CODE
  Relative segment, address: 00118DF8 - 00118DFB (0x4 bytes), align: 2
  Segment part 15.
           ENTRY                   ADDRESS         REF BY
           =====                   =======         ======
           __ulongToDouble::??rT   00118DF9 
    -------------------------------------------------------------------------
CODE
  Relative segment, address: 00118DFC - 00118E23 (0x28 bytes), align: 2
  Segment part 16.            Intra module refs:   __ulongToDouble::??rT
           ENTRY                   ADDRESS         REF BY
           =====                   =======         ======
           __ulongToDouble         00118DFC        _LdtobDefault (?xprintffull)
    -------------------------------------------------------------------------
CODE
  Relative segment, address: 00118E24 - 00118E27 (0x4 bytes), align: 2
  Segment part 17.
           ENTRY                   ADDRESS         REF BY
           =====                   =======         ======
           __longToDouble::??rT    00118E25 
    -------------------------------------------------------------------------
CODE
  Relative segment, address: 00118E28 - 00118E53 (0x2c bytes), align: 2
  Segment part 18.            Intra module refs:   __longToDouble::??rT
           ENTRY                   ADDRESS         REF BY
           =====                   =======         ======
           __longToDouble          00118E28        _LdtobDefault (?xprintffull)
                                                   _Stold (?xstold)
    -------------------------------------------------------------------------
CODE
  Relative segment, address: 00118E54 - 00118E57 (0x4 bytes), align: 2
  Segment part 19.
           ENTRY                   ADDRESS         REF BY
           =====                   =======         ======
           __doubleToUlong::??rT   00118E55 
    -------------------------------------------------------------------------
CODE
  Relative segment, address: 00118E58 - 00118F3F (0xe8 bytes), align: 2
  Segment part 20.            Intra module refs:   __doubleToUlong::??rT
           ENTRY                   ADDRESS         REF BY
           =====                   =======         ======
           __doubleToUlong         00118E58        _LdtobDefault (?xprintffull)
    -------------------------------------------------------------------------
CODE
  Relative segment, address: 00118F40 - 00118F43 (0x4 bytes), align: 2
  Segment part 21.
           ENTRY                   ADDRESS         REF BY
           =====                   =======         ======
           __doubleToLong::??rT    00118F41 
    -------------------------------------------------------------------------
CODE
  Relative segment, address: 00118F44 - 00119027 (0xe4 bytes), align: 2
  Segment part 22.            Intra module refs:   __doubleToLong::??rT
           ENTRY                   ADDRESS         REF BY
           =====                   =======         ======
           __doubleToLong          00118F44        _LdtobDefault (?xprintffull)
                                                   cUiUpdateSensor (c_ui)
                                                   cUiUpdateStatus (c_ui)
    -------------------------------------------------------------------------
CODE
  Relative segment, address: 00119028 - 0011902B (0x4 bytes), align: 2
  Segment part 23.
           ENTRY                   ADDRESS         REF BY
           =====                   =======         ======
           __doubleToFloat::??rT   00119029 
    -------------------------------------------------------------------------
CODE
  Relative segment, address: 0011902C - 0011907B (0x50 bytes), align: 2
  Segment part 24.            Intra module refs:   __doubleToFloat::??rT
           ENTRY                   ADDRESS         REF BY
           =====                   =======         ======
           __doubleToFloat         0011902C        _GetfloatDefault (?xscanffull)
                                                   cCmdGetFloat (c_cmd)
                                                   cCmdUnop2Flt (c_cmd)
    -------------------------------------------------------------------------
CODE
  Relative segment, address: 0011907C - 0011907F (0x4 bytes), align: 2
  Segment part 25.
           ENTRY                   ADDRESS         REF BY
           =====                   =======         ======
           __floatToDouble::??rT   0011907D 
    -------------------------------------------------------------------------
CODE
  Relative segment, address: 00119080 - 001190DF (0x60 bytes), align: 2
  Segment part 26.            Intra module refs:   __floatToDouble::??rT
           ENTRY                   ADDRESS         REF BY
           =====                   =======         ======
           __floatToDouble         00119080        cCmdGetFloat (c_cmd)
                                                   cCmdInterpUnop2 (c_cmd)
                                                   cCmdUnop2Flt (c_cmd)
                                                   cUiDataLogging (c_ui)
                                                   cUiPrintSensorInDisplayBuffer (c_ui)
                                                   cUiUpdateSensor (c_ui)
                                                   cUiUpdateStatus (c_ui)
    -------------------------------------------------------------------------
CODE
  Relative segment, address: 001190E0 - 001190E3 (0x4 bytes), align: 2
  Segment part 27.
           ENTRY                   ADDRESS         REF BY
           =====                   =======         ======
           __dEqual::??rT          001190E1 
    -------------------------------------------------------------------------
CODE
  Relative segment, address: 001190E4 - 00119123 (0x40 bytes), align: 2
  Segment part 28.            Intra module refs:   __dEqual::??rT
           ENTRY                   ADDRESS         REF BY
           =====                   =======         ======
           __dEqual                001190E4        _Dtento (?xdtento)
    -------------------------------------------------------------------------
CODE
  Relative segment, address: 00119124 - 0011915F (0x3c bytes), align: 2
  Segment part 33.            Intra module refs:   __dGreaterEqual
                                                   __dLess
    -------------------------------------------------------------------------
CODE
  Relative segment, address: 00119160 - 00119163 (0x4 bytes), align: 2
  Segment part 34.
           ENTRY                   ADDRESS         REF BY
           =====                   =======         ======
           __dLess::??rT           00119161 
    -------------------------------------------------------------------------
CODE
  Relative segment, address: 00119164 - 001191AB (0x48 bytes), align: 2
  Segment part 35.            Intra module refs:   __dGreaterEqual
                                                   __dLess::??rT
           ENTRY                   ADDRESS         REF BY
           =====                   =======         ======
           __dLess                 00119164        _LdtobDefault (?xprintffull)
                                                   cCmdInterpUnop2 (c_cmd)
    -------------------------------------------------------------------------
CODE
  Relative segment, address: 001191AC - 001191AF (0x4 bytes), align: 2
  Segment part 36.
           ENTRY                   ADDRESS         REF BY
           =====                   =======         ======
           __dGreaterEqual::??rT   001191AD 
    -------------------------------------------------------------------------
CODE
  Relative segment, address: 001191B0 - 001191C7 (0x18 bytes), align: 2
  Segment part 37.            Intra module refs:   __dGreaterEqual::??rT
           ENTRY                   ADDRESS         REF BY
           =====                   =======         ======
           __dGreaterEqual         001191B0        _LdtobDefault (?xprintffull)
                                                   cCmdInterpUnop2 (c_cmd)

    -------------------------------------------------------------------------
  LIBRARY MODULE, NAME : ?floatSoftLib

  SEGMENTS IN THE MODULE
  ======================
CODE
  Relative segment, address: 001191C8 - 001191EB (0x24 bytes), align: 2
  Segment part 0.             Intra module refs:   __fAdd
                                                   __fDiv
                                                   __fMul
    -------------------------------------------------------------------------
CODE
  Relative segment, address: 001191EC - 0011938B (0x1a0 bytes), align: 2
  Segment part 1.             Intra module refs:   Segment part 5
                                                   Segment part 6
                                                   __fAdd
                                                   __fDiv
                                                   __fMul
                                                   __longToFloat
                                                   __ulongToFloat
           ENTRY                   ADDRESS         REF BY
           =====                   =======         ======
           ?fDeNormalize           00119288        __doubleToFloat (?doubleSoftLIb)
    -------------------------------------------------------------------------
CODE
  Relative segment, address: 0011938C - 001193B3 (0x28 bytes), align: 2
  Segment part 5.             Intra module refs:   ?fDeNormalize
                                                   __fAdd
                                                   __floatToLong
                                                   __floatToUlong
           ENTRY                   ADDRESS         REF BY
           =====                   =======         ======
           ?raiseInexact           0011938C        __dAdd (?doubleSoftLIb)
                                                   __doubleToLong (?doubleSoftLIb)
                                                   __doubleToUlong (?doubleSoftLIb)
           ?raiseInvalid           001193A0        __doubleToLong (?doubleSoftLIb)
                                                   __doubleToUlong (?doubleSoftLIb)
    -------------------------------------------------------------------------
CODE
  Relative segment, address: 001193B4 - 001193DB (0x28 bytes), align: 2
  Segment part 6.             Intra module refs:   __fGreaterEqual
                                                   __fLess
    -------------------------------------------------------------------------
CODE
  Relative segment, address: 001193DC - 001193DF (0x4 bytes), align: 2
  Segment part 7.
           ENTRY                   ADDRESS         REF BY
           =====                   =======         ======
           __fSub::??rT            001193DD 
    -------------------------------------------------------------------------
CODE
  Relative segment, address: 001193E0 - 001193E7 (0x8 bytes), align: 2
  Segment part 8.             Intra module refs:   __fSub::??rT
           ENTRY                   ADDRESS         REF BY
           =====                   =======         ======
           __fSub                  001193E0        cCmdBinopFlt (c_cmd)
    -------------------------------------------------------------------------
CODE
  Relative segment, address: 001193E8 - 001193EB (0x4 bytes), align: 2
  Segment part 9.
           ENTRY                   ADDRESS         REF BY
           =====                   =======         ======
           __fAdd::??rT            001193E9 
    -------------------------------------------------------------------------
CODE
  Relative segment, address: 001193EC - 001194F7 (0x10c bytes), align: 2
  Segment part 10.            Intra module refs:   __fSub
           ENTRY                   ADDRESS         REF BY
           =====                   =======         ======
           __fAdd                  001193EC        cCmdBinopFlt (c_cmd)
    -------------------------------------------------------------------------
CODE
  Relative segment, address: 001194F8 - 001194FB (0x4 bytes), align: 2
  Segment part 11.
           ENTRY                   ADDRESS         REF BY
           =====                   =======         ======
           __fMul::??rT            001194F9 
    -------------------------------------------------------------------------
CODE
  Relative segment, address: 001194FC - 0011959B (0xa0 bytes), align: 2
  Segment part 12.            Intra module refs:   __fMul::??rT
           ENTRY                   ADDRESS         REF BY
           =====                   =======         ======
           __fMul                  001194FC        cCmdBinopFlt (c_cmd)
    -------------------------------------------------------------------------
CODE
  Relative segment, address: 0011959C - 0011959F (0x4 bytes), align: 2
  Segment part 13.
           ENTRY                   ADDRESS         REF BY
           =====                   =======         ======
           __fDiv::??rT            0011959D 
    -------------------------------------------------------------------------
CODE
  Relative segment, address: 001195A0 - 0011967B (0xdc bytes), align: 2
  Segment part 14.            Intra module refs:   __fDiv::??rT
           ENTRY                   ADDRESS         REF BY
           =====                   =======         ======
           __fDiv                  001195A0        cCmdBinopFlt (c_cmd)
                                                   cUiDataLogging (c_ui)
                                                   cUiPrintSensorInDisplayBuffer (c_ui)
    -------------------------------------------------------------------------
CODE
  Relative segment, address: 0011967C - 0011967F (0x4 bytes), align: 2
  Segment part 15.
           ENTRY                   ADDRESS         REF BY
           =====                   =======         ======
           __ulongToFloat::??rT    0011967D 
    -------------------------------------------------------------------------
CODE
  Relative segment, address: 00119680 - 0011969B (0x1c bytes), align: 2
  Segment part 16.            Intra module refs:   __ulongToFloat::??rT
           ENTRY                   ADDRESS         REF BY
           =====                   =======         ======
           __ulongToFloat          00119680        cCmdBinopFlt (c_cmd)
                                                   cCmdGetValFlt (c_cmd)
                                                   cCmdInterpOther (c_cmd)
                                                   cCmdUnop2Flt (c_cmd)
                                                   cUiUpdateStatus (c_ui)
    -------------------------------------------------------------------------
CODE
  Relative segment, address: 0011969C - 0011969F (0x4 bytes), align: 2
  Segment part 17.
           ENTRY                   ADDRESS         REF BY
           =====                   =======         ======
           __longToFloat::??rT     0011969D 
    -------------------------------------------------------------------------
CODE
  Relative segment, address: 001196A0 - 001196BB (0x1c bytes), align: 2
  Segment part 18.            Intra module refs:   __longToFloat::??rT
           ENTRY                   ADDRESS         REF BY
           =====                   =======         ======
           __longToFloat           001196A0        cCmdBinopFlt (c_cmd)
                                                   cCmdGetValFlt (c_cmd)
                                                   cUiDataLogging (c_ui)
                                                   cUiPrintSensorInDisplayBuffer (c_ui)
                                                   cUiUpdateSensor (c_ui)
    -------------------------------------------------------------------------
CODE
  Relative segment, address: 001196BC - 001196BF (0x4 bytes), align: 2
  Segment part 19.
           ENTRY                   ADDRESS         REF BY
           =====                   =======         ======
           __floatToUlong::??rT    001196BD 
    -------------------------------------------------------------------------
CODE
  Relative segment, address: 001196C0 - 0011974F (0x90 bytes), align: 2
  Segment part 20.            Intra module refs:   __floatToUlong::??rT
           ENTRY                   ADDRESS         REF BY
           =====                   =======         ======
           __floatToUlong          001196C0        cCmdGetFloat (c_cmd)
                                                   cCmdSetValFlt (c_cmd)
    -------------------------------------------------------------------------
CODE
  Relative segment, address: 00119750 - 00119753 (0x4 bytes), align: 2
  Segment part 21.
           ENTRY                   ADDRESS         REF BY
           =====                   =======         ======
           __floatToLong::??rT     00119751 
    -------------------------------------------------------------------------
CODE
  Relative segment, address: 00119754 - 001197D7 (0x84 bytes), align: 2
  Segment part 22.            Intra module refs:   __floatToLong::??rT
           ENTRY                   ADDRESS         REF BY
           =====                   =======         ======
           __floatToLong           00119754        cCmdBinopFlt (c_cmd)
                                                   cCmdSetValFlt (c_cmd)
                                                   cUiPrintSensorInDisplayBuffer (c_ui)
    -------------------------------------------------------------------------
CODE
  Relative segment, address: 001197D8 - 001197DB (0x4 bytes), align: 2
  Segment part 23.
           ENTRY                   ADDRESS         REF BY
           =====                   =======         ======
           __fEqual::??rT          001197D9 
    -------------------------------------------------------------------------
CODE
  Relative segment, address: 001197DC - 0011980B (0x30 bytes), align: 2
  Segment part 24.            Intra module refs:   __fEqual::??rT
                                                   __fNotEqual
           ENTRY                   ADDRESS         REF BY
           =====                   =======         ======
           __fEqual                001197DC        cCmdBinopFlt (c_cmd)
                                                   cCmdCompareFlt (c_cmd)
    -------------------------------------------------------------------------
CODE
  Relative segment, address: 0011980C - 0011980F (0x4 bytes), align: 2
  Segment part 25.
           ENTRY                   ADDRESS         REF BY
           =====                   =======         ======
           __fNotEqual::??rT       0011980D 
    -------------------------------------------------------------------------
CODE
  Relative segment, address: 00119810 - 00119823 (0x14 bytes), align: 2
  Segment part 26.            Intra module refs:   __fNotEqual::??rT
           ENTRY                   ADDRESS         REF BY
           =====                   =======         ======
           __fNotEqual             00119810        cCmdCompareFlt (c_cmd)
                                                   cCmdUnop2Flt (c_cmd)
    -------------------------------------------------------------------------
CODE
  Relative segment, address: 00119824 - 00119827 (0x4 bytes), align: 2
  Segment part 29.
           ENTRY                   ADDRESS         REF BY
           =====                   =======         ======
           __fLess::??rT           00119825 
    -------------------------------------------------------------------------
CODE
  Relative segment, address: 00119828 - 0011986F (0x48 bytes), align: 2
  Segment part 30.            Intra module refs:   __fGreaterEqual
                                                   __fLess::??rT
           ENTRY                   ADDRESS         REF BY
           =====                   =======         ======
           __fLess                 00119828        cCmdCompareFlt (c_cmd)
    -------------------------------------------------------------------------
CODE
  Relative segment, address: 00119870 - 00119873 (0x4 bytes), align: 2
  Segment part 31.
           ENTRY                   ADDRESS         REF BY
           =====                   =======         ======
           __fGreaterEqual::??rT   00119871 
    -------------------------------------------------------------------------
CODE
  Relative segment, address: 00119874 - 00119887 (0x14 bytes), align: 2
  Segment part 32.            Intra module refs:   __fGreaterEqual::??rT
           ENTRY                   ADDRESS         REF BY
           =====                   =======         ======
           __fGreaterEqual         00119874        cCmdCompareFlt (c_cmd)
                                                   cCmdGetFloat (c_cmd)

    -------------------------------------------------------------------------
  LIBRARY MODULE, NAME : ?__FloatingPointFlags

  SEGMENTS IN THE MODULE
  ======================
DATA_Z
  Relative segment, address: 0000BABC - 0000BABF (0x4 bytes), align: 2
  Segment part 0.
           ENTRY                   ADDRESS         REF BY
           =====                   =======         ======
           __FloatingPointFlags    0000BABC        ?fDeNormalize (?floatSoftLib)
                                                   Segment part 4 (?doubleSoftLIb)




                ****************************************
                *                                      *
                *      SEGMENTS IN ADDRESS ORDER       *
                *                                      *
                ****************************************


SEGMENT              SPACE    START ADDRESS   END ADDRESS     SIZE  TYPE  ALIGN
=======              =====    =============   ===========     ====  ====  =====
DATA_I                             00000100 - 000007D3         6D4   rel    2
DATA_Z                             000007D4 - 0000BAC6        B2F3   rel    2
CODE_I                             0000BAC8 - 0000C5EF         B28   rel    2
INTRAMEND_REMAP                         00010000                     rel    2
ICODE                              00100000 - 00100257         258   rel    2
CODE                               00100258 - 00119887       19630   rel    2
INITTAB                            00119888 - 001198AB          24   rel    2
DATA_ID                            001198AC - 00119F7F         6D4   rel    2
DATA_C                             00119F80 - 00120693        6714   rel    2
CODE_ID                            00120694 - 001211BB         B28   rel    2
INTRAMSTART                             00200000                     rel    2
INTRAMEND_BEFORE_REMAP
                                        00210000                     rel    2

                ****************************************
                *                                      *
                *        END OF CROSS REFERENCE        *
                *                                      *
                ****************************************

 104 584 bytes of CODE  memory
  50 415 bytes of DATA  memory
  31 028 bytes of CONST memory

Errors: none
Warnings: 1

